
susuos.elf:     file format elf64-littleriscv


Disassembly of section .text:

0000000040000000 <_start>:
    40000000:	30401073          	csrrw	x0,mie,x0
    40000004:	00420337          	lui	x6,0x420
    40000008:	7c032073          	csrrs	x0,0x7c0,x6
    4000000c:	000303b7          	lui	x7,0x30
    40000010:	23cd                	c.addiw	x7,19
    40000012:	7c23a073          	csrrs	x0,0x7c2,x7
    40000016:	00800337          	lui	x6,0x800
    4000001a:	00902297          	auipc	x5,0x902
    4000001e:	5de28293          	addi	x5,x5,1502 # 409025f8 <_bss_end>
    40000022:	929a                	c.add	x5,x6
    40000024:	03a000ef          	jal	x1,4000005e <main>

0000000040000028 <uart_send>:
    40000028:	02500537          	lui	x10,0x2500
    4000002c:	04100593          	addi	x11,x0,65
    40000030:	c10c                	c.sw	x11,0(x10)
    40000032:	bfdd                	c.j	40000028 <uart_send>

0000000040000034 <show_hello>:
    40000034:	1141                	c.addi	x2,-16
    40000036:	e406                	c.sdsp	x1,8(x2)
    40000038:	e022                	c.sdsp	x8,0(x2)
    4000003a:	0800                	c.addi4spn	x8,x2,16
    4000003c:	400017b7          	lui	x15,0x40001
    40000040:	6b878513          	addi	x10,x15,1720 # 400016b8 <trap_handler+0xa8>
    40000044:	2d9000ef          	jal	x1,40000b1c <debug>
    40000048:	3e800513          	addi	x10,x0,1000
    4000004c:	22e000ef          	jal	x1,4000027a <delay_ms>
    40000050:	400027b7          	lui	x15,0x40002
    40000054:	40878513          	addi	x10,x15,1032 # 40002408 <os_thread>
    40000058:	3a4010ef          	jal	x1,400013fc <schedule>
    4000005c:	b7c5                	c.j	4000003c <show_hello+0x8>

000000004000005e <main>:
    4000005e:	7179                	c.addi16sp	x2,-48
    40000060:	f406                	c.sdsp	x1,40(x2)
    40000062:	f022                	c.sdsp	x8,32(x2)
    40000064:	ec26                	c.sdsp	x9,24(x2)
    40000066:	1800                	c.addi4spn	x8,x2,48
    40000068:	4585                	c.li	x11,1
    4000006a:	4501                	c.li	x10,0
    4000006c:	260000ef          	jal	x1,400002cc <uart_init>
    40000070:	7cb000ef          	jal	x1,4000103a <heap_init>
    40000074:	31e010ef          	jal	x1,40001392 <init_so_thread>
    40000078:	57e010ef          	jal	x1,400015f6 <trap_init>
    4000007c:	400007b7          	lui	x15,0x40000
    40000080:	03478513          	addi	x10,x15,52 # 40000034 <show_hello>
    40000084:	330010ef          	jal	x1,400013b4 <init_thread>
    40000088:	fca43c23          	sd	x10,-40(x8)
    4000008c:	4b4010ef          	jal	x1,40001540 <all_interrupt_enable>
    40000090:	53a010ef          	jal	x1,400015ca <clint_soft_irq_init>
    40000094:	6789                	c.lui	x15,0x2
    40000096:	71078513          	addi	x10,x15,1808 # 2710 <_start-0x3fffd8f0>
    4000009a:	4ec010ef          	jal	x1,40001586 <clint_set_next_initerr>
    4000009e:	400017b7          	lui	x15,0x40001
    400000a2:	6c878513          	addi	x10,x15,1736 # 400016c8 <trap_handler+0xb8>
    400000a6:	277000ef          	jal	x1,40000b1c <debug>
    400000aa:	7d000513          	addi	x10,x0,2000
    400000ae:	1cc000ef          	jal	x1,4000027a <delay_ms>
    400000b2:	4505                	c.li	x10,1
    400000b4:	060000ef          	jal	x1,40000114 <read_register>
    400000b8:	87aa                	c.mv	x15,x10
    400000ba:	85be                	c.mv	x11,x15
    400000bc:	400017b7          	lui	x15,0x40001
    400000c0:	6d878513          	addi	x10,x15,1752 # 400016d8 <trap_handler+0xc8>
    400000c4:	259000ef          	jal	x1,40000b1c <debug>
    400000c8:	4509                	c.li	x10,2
    400000ca:	04a000ef          	jal	x1,40000114 <read_register>
    400000ce:	87aa                	c.mv	x15,x10
    400000d0:	85be                	c.mv	x11,x15
    400000d2:	400017b7          	lui	x15,0x40001
    400000d6:	6e878513          	addi	x10,x15,1768 # 400016e8 <trap_handler+0xd8>
    400000da:	243000ef          	jal	x1,40000b1c <debug>
    400000de:	450d                	c.li	x10,3
    400000e0:	034000ef          	jal	x1,40000114 <read_register>
    400000e4:	87aa                	c.mv	x15,x10
    400000e6:	85be                	c.mv	x11,x15
    400000e8:	400017b7          	lui	x15,0x40001
    400000ec:	6f878513          	addi	x10,x15,1784 # 400016f8 <trap_handler+0xe8>
    400000f0:	22d000ef          	jal	x1,40000b1c <debug>
    400000f4:	4511                	c.li	x10,4
    400000f6:	01e000ef          	jal	x1,40000114 <read_register>
    400000fa:	84aa                	c.mv	x9,x10
    400000fc:	454010ef          	jal	x1,40001550 <counter>
    40000100:	87aa                	c.mv	x15,x10
    40000102:	863e                	c.mv	x12,x15
    40000104:	85a6                	c.mv	x11,x9
    40000106:	400017b7          	lui	x15,0x40001
    4000010a:	70878513          	addi	x10,x15,1800 # 40001708 <trap_handler+0xf8>
    4000010e:	20f000ef          	jal	x1,40000b1c <debug>
    40000112:	b771                	c.j	4000009e <main+0x40>

0000000040000114 <read_register>:
    40000114:	7179                	c.addi16sp	x2,-48
    40000116:	f422                	c.sdsp	x8,40(x2)
    40000118:	1800                	c.addi4spn	x8,x2,48
    4000011a:	87aa                	c.mv	x15,x10
    4000011c:	fcf40fa3          	sb	x15,-33(x8)
    40000120:	fe043423          	sd	x0,-24(x8)
    40000124:	fdf44783          	lbu	x15,-33(x8)
    40000128:	0ff7f713          	andi	x14,x15,255
    4000012c:	4785                	c.li	x15,1
    4000012e:	00f71663          	bne	x14,x15,4000013a <read_register+0x26>
    40000132:	300027f3          	csrrs	x15,mstatus,x0
    40000136:	fef43423          	sd	x15,-24(x8)
    4000013a:	fdf44783          	lbu	x15,-33(x8)
    4000013e:	0ff7f713          	andi	x14,x15,255
    40000142:	4789                	c.li	x15,2
    40000144:	00f71663          	bne	x14,x15,40000150 <read_register+0x3c>
    40000148:	304027f3          	csrrs	x15,mie,x0
    4000014c:	fef43423          	sd	x15,-24(x8)
    40000150:	fdf44783          	lbu	x15,-33(x8)
    40000154:	0ff7f713          	andi	x14,x15,255
    40000158:	478d                	c.li	x15,3
    4000015a:	00f71663          	bne	x14,x15,40000166 <read_register+0x52>
    4000015e:	7c0027f3          	csrrs	x15,0x7c0,x0
    40000162:	fef43423          	sd	x15,-24(x8)
    40000166:	fdf44783          	lbu	x15,-33(x8)
    4000016a:	0ff7f713          	andi	x14,x15,255
    4000016e:	4791                	c.li	x15,4
    40000170:	02f71063          	bne	x14,x15,40000190 <read_register+0x7c>
    40000174:	140047b7          	lui	x15,0x14004
    40000178:	fef43023          	sd	x15,-32(x8)
    4000017c:	fe043783          	ld	x15,-32(x8)
    40000180:	439c                	c.lw	x15,0(x15)
    40000182:	2781                	c.addiw	x15,0
    40000184:	2781                	c.addiw	x15,0
    40000186:	2781                	c.addiw	x15,0
    40000188:	1782                	c.slli	x15,0x20
    4000018a:	9381                	c.srli	x15,0x20
    4000018c:	fef43423          	sd	x15,-24(x8)
    40000190:	fe843783          	ld	x15,-24(x8)
    40000194:	853e                	c.mv	x10,x15
    40000196:	7422                	c.ldsp	x8,40(x2)
    40000198:	6145                	c.addi16sp	x2,48
    4000019a:	8082                	c.jr	x1

000000004000019c <put32>:
    4000019c:	1101                	c.addi	x2,-32
    4000019e:	ec22                	c.sdsp	x8,24(x2)
    400001a0:	1000                	c.addi4spn	x8,x2,32
    400001a2:	fea43423          	sd	x10,-24(x8)
    400001a6:	87ae                	c.mv	x15,x11
    400001a8:	fef42223          	sw	x15,-28(x8)
    400001ac:	fe843783          	ld	x15,-24(x8)
    400001b0:	fe442703          	lw	x14,-28(x8)
    400001b4:	c398                	c.sw	x14,0(x15)
    400001b6:	0001                	c.addi	x0,0
    400001b8:	6462                	c.ldsp	x8,24(x2)
    400001ba:	6105                	c.addi16sp	x2,32
    400001bc:	8082                	c.jr	x1

00000000400001be <get32>:
    400001be:	1101                	c.addi	x2,-32
    400001c0:	ec22                	c.sdsp	x8,24(x2)
    400001c2:	1000                	c.addi4spn	x8,x2,32
    400001c4:	fea43423          	sd	x10,-24(x8)
    400001c8:	fe843783          	ld	x15,-24(x8)
    400001cc:	439c                	c.lw	x15,0(x15)
    400001ce:	2781                	c.addiw	x15,0
    400001d0:	853e                	c.mv	x10,x15
    400001d2:	6462                	c.ldsp	x8,24(x2)
    400001d4:	6105                	c.addi16sp	x2,32
    400001d6:	8082                	c.jr	x1

00000000400001d8 <read32>:
    400001d8:	1101                	c.addi	x2,-32
    400001da:	ec22                	c.sdsp	x8,24(x2)
    400001dc:	1000                	c.addi4spn	x8,x2,32
    400001de:	fea43423          	sd	x10,-24(x8)
    400001e2:	fe843783          	ld	x15,-24(x8)
    400001e6:	439c                	c.lw	x15,0(x15)
    400001e8:	2781                	c.addiw	x15,0
    400001ea:	853e                	c.mv	x10,x15
    400001ec:	6462                	c.ldsp	x8,24(x2)
    400001ee:	6105                	c.addi16sp	x2,32
    400001f0:	8082                	c.jr	x1

00000000400001f2 <write32>:
    400001f2:	1101                	c.addi	x2,-32
    400001f4:	ec22                	c.sdsp	x8,24(x2)
    400001f6:	1000                	c.addi4spn	x8,x2,32
    400001f8:	fea43423          	sd	x10,-24(x8)
    400001fc:	87ae                	c.mv	x15,x11
    400001fe:	fef42223          	sw	x15,-28(x8)
    40000202:	fe843783          	ld	x15,-24(x8)
    40000206:	fe442703          	lw	x14,-28(x8)
    4000020a:	c398                	c.sw	x14,0(x15)
    4000020c:	0001                	c.addi	x0,0
    4000020e:	6462                	c.ldsp	x8,24(x2)
    40000210:	6105                	c.addi16sp	x2,32
    40000212:	8082                	c.jr	x1

0000000040000214 <get_arch_counter>:
    40000214:	1101                	c.addi	x2,-32
    40000216:	ec22                	c.sdsp	x8,24(x2)
    40000218:	1000                	c.addi4spn	x8,x2,32
    4000021a:	fe043423          	sd	x0,-24(x8)
    4000021e:	c01027f3          	csrrs	x15,time,x0
    40000222:	fef43423          	sd	x15,-24(x8)
    40000226:	fe843783          	ld	x15,-24(x8)
    4000022a:	853e                	c.mv	x10,x15
    4000022c:	6462                	c.ldsp	x8,24(x2)
    4000022e:	6105                	c.addi16sp	x2,32
    40000230:	8082                	c.jr	x1

0000000040000232 <delay_us>:
    40000232:	7179                	c.addi16sp	x2,-48
    40000234:	f406                	c.sdsp	x1,40(x2)
    40000236:	f022                	c.sdsp	x8,32(x2)
    40000238:	1800                	c.addi4spn	x8,x2,48
    4000023a:	fca43c23          	sd	x10,-40(x8)
    4000023e:	fd843703          	ld	x14,-40(x8)
    40000242:	87ba                	c.mv	x15,x14
    40000244:	0786                	c.slli	x15,0x1
    40000246:	97ba                	c.add	x15,x14
    40000248:	078e                	c.slli	x15,0x3
    4000024a:	fef43423          	sd	x15,-24(x8)
    4000024e:	fc7ff0ef          	jal	x1,40000214 <get_arch_counter>
    40000252:	fea43023          	sd	x10,-32(x8)
    40000256:	fbfff0ef          	jal	x1,40000214 <get_arch_counter>
    4000025a:	872a                	c.mv	x14,x10
    4000025c:	fe043783          	ld	x15,-32(x8)
    40000260:	40f707b3          	sub	x15,x14,x15
    40000264:	fe843703          	ld	x14,-24(x8)
    40000268:	00e7f363          	bgeu	x15,x14,4000026e <delay_us+0x3c>
    4000026c:	b7ed                	c.j	40000256 <delay_us+0x24>
    4000026e:	0001                	c.addi	x0,0
    40000270:	0001                	c.addi	x0,0
    40000272:	70a2                	c.ldsp	x1,40(x2)
    40000274:	7402                	c.ldsp	x8,32(x2)
    40000276:	6145                	c.addi16sp	x2,48
    40000278:	8082                	c.jr	x1

000000004000027a <delay_ms>:
    4000027a:	1101                	c.addi	x2,-32
    4000027c:	ec06                	c.sdsp	x1,24(x2)
    4000027e:	e822                	c.sdsp	x8,16(x2)
    40000280:	1000                	c.addi4spn	x8,x2,32
    40000282:	fea43423          	sd	x10,-24(x8)
    40000286:	fe843703          	ld	x14,-24(x8)
    4000028a:	3e800793          	addi	x15,x0,1000
    4000028e:	02f707b3          	mul	x15,x14,x15
    40000292:	853e                	c.mv	x10,x15
    40000294:	f9fff0ef          	jal	x1,40000232 <delay_us>
    40000298:	60e2                	c.ldsp	x1,24(x2)
    4000029a:	6442                	c.ldsp	x8,16(x2)
    4000029c:	6105                	c.addi16sp	x2,32
    4000029e:	8082                	c.jr	x1

00000000400002a0 <assert>:
    400002a0:	1101                	c.addi	x2,-32
    400002a2:	ec06                	c.sdsp	x1,24(x2)
    400002a4:	e822                	c.sdsp	x8,16(x2)
    400002a6:	1000                	c.addi4spn	x8,x2,32
    400002a8:	87aa                	c.mv	x15,x10
    400002aa:	fef42623          	sw	x15,-20(x8)
    400002ae:	fec42783          	lw	x15,-20(x8)
    400002b2:	2781                	c.addiw	x15,0
    400002b4:	e799                	c.bnez	x15,400002c2 <assert+0x22>
    400002b6:	400017b7          	lui	x15,0x40001
    400002ba:	72078513          	addi	x10,x15,1824 # 40001720 <memory_end+0x5>
    400002be:	05f000ef          	jal	x1,40000b1c <debug>
    400002c2:	0001                	c.addi	x0,0
    400002c4:	60e2                	c.ldsp	x1,24(x2)
    400002c6:	6442                	c.ldsp	x8,16(x2)
    400002c8:	6105                	c.addi16sp	x2,32
    400002ca:	8082                	c.jr	x1

00000000400002cc <uart_init>:
    400002cc:	7139                	c.addi16sp	x2,-64
    400002ce:	fc06                	c.sdsp	x1,56(x2)
    400002d0:	f822                	c.sdsp	x8,48(x2)
    400002d2:	0080                	c.addi4spn	x8,x2,64
    400002d4:	87aa                	c.mv	x15,x10
    400002d6:	872e                	c.mv	x14,x11
    400002d8:	fcf42623          	sw	x15,-52(x8)
    400002dc:	87ba                	c.mv	x15,x14
    400002de:	fcf42423          	sw	x15,-56(x8)
    400002e2:	fcc42783          	lw	x15,-52(x8)
    400002e6:	2781                	c.addiw	x15,0
    400002e8:	0007c963          	blt	x15,x0,400002fa <uart_init+0x2e>
    400002ec:	fcc42783          	lw	x15,-52(x8)
    400002f0:	0007871b          	addiw	x14,x15,0
    400002f4:	4795                	c.li	x15,5
    400002f6:	00e7d463          	bge	x15,x14,400002fe <uart_init+0x32>
    400002fa:	4781                	c.li	x15,0
    400002fc:	a231                	c.j	40000408 <uart_init+0x13c>
    400002fe:	fcc42783          	lw	x15,-52(x8)
    40000302:	853e                	c.mv	x10,x15
    40000304:	184000ef          	jal	x1,40000488 <uart_clock_init>
    40000308:	fc842783          	lw	x15,-56(x8)
    4000030c:	2781                	c.addiw	x15,0
    4000030e:	c399                	c.beqz	x15,40000314 <uart_init+0x48>
    40000310:	210000ef          	jal	x1,40000520 <uart_set_gpio>
    40000314:	fcc42703          	lw	x14,-52(x8)
    40000318:	67a5                	c.lui	x15,0x9
    4000031a:	40078793          	addi	x15,x15,1024 # 9400 <_start-0x3fff6c00>
    4000031e:	97ba                	c.add	x15,x14
    40000320:	07aa                	c.slli	x15,0xa
    40000322:	fef43423          	sd	x15,-24(x8)
    40000326:	fcc42703          	lw	x14,-52(x8)
    4000032a:	67a5                	c.lui	x15,0x9
    4000032c:	40078793          	addi	x15,x15,1024 # 9400 <_start-0x3fff6c00>
    40000330:	97ba                	c.add	x15,x14
    40000332:	07aa                	c.slli	x15,0xa
    40000334:	0a478793          	addi	x15,x15,164
    40000338:	fef43023          	sd	x15,-32(x8)
    4000033c:	47b5                	c.li	x15,13
    4000033e:	fcf42e23          	sw	x15,-36(x8)
    40000342:	fe843783          	ld	x15,-24(x8)
    40000346:	479c                	c.lw	x15,8(x15)
    40000348:	2781                	c.addiw	x15,0
    4000034a:	0017e793          	ori	x15,x15,1
    4000034e:	0007871b          	addiw	x14,x15,0
    40000352:	fe843783          	ld	x15,-24(x8)
    40000356:	c798                	c.sw	x14,8(x15)
    40000358:	fe043783          	ld	x15,-32(x8)
    4000035c:	439c                	c.lw	x15,0(x15)
    4000035e:	2781                	c.addiw	x15,0
    40000360:	0017e793          	ori	x15,x15,1
    40000364:	0007871b          	addiw	x14,x15,0
    40000368:	fe043783          	ld	x15,-32(x8)
    4000036c:	c398                	c.sw	x14,0(x15)
    4000036e:	fe843783          	ld	x15,-24(x8)
    40000372:	47dc                	c.lw	x15,12(x15)
    40000374:	2781                	c.addiw	x15,0
    40000376:	0807e793          	ori	x15,x15,128
    4000037a:	0007871b          	addiw	x14,x15,0
    4000037e:	fe843783          	ld	x15,-24(x8)
    40000382:	c7d8                	c.sw	x14,12(x15)
    40000384:	fdc42783          	lw	x15,-36(x8)
    40000388:	0087d79b          	srliw	x15,x15,0x8
    4000038c:	2781                	c.addiw	x15,0
    4000038e:	0ff7f793          	andi	x15,x15,255
    40000392:	0007871b          	addiw	x14,x15,0
    40000396:	fe843783          	ld	x15,-24(x8)
    4000039a:	c3d8                	c.sw	x14,4(x15)
    4000039c:	fdc42783          	lw	x15,-36(x8)
    400003a0:	0ff7f793          	andi	x15,x15,255
    400003a4:	0007871b          	addiw	x14,x15,0
    400003a8:	fe843783          	ld	x15,-24(x8)
    400003ac:	c398                	c.sw	x14,0(x15)
    400003ae:	fe843783          	ld	x15,-24(x8)
    400003b2:	47dc                	c.lw	x15,12(x15)
    400003b4:	2781                	c.addiw	x15,0
    400003b6:	f7f7f793          	andi	x15,x15,-129
    400003ba:	0007871b          	addiw	x14,x15,0
    400003be:	fe843783          	ld	x15,-24(x8)
    400003c2:	c7d8                	c.sw	x14,12(x15)
    400003c4:	fe843783          	ld	x15,-24(x8)
    400003c8:	470d                	c.li	x14,3
    400003ca:	c7d8                	c.sw	x14,12(x15)
    400003cc:	fe843783          	ld	x15,-24(x8)
    400003d0:	471d                	c.li	x14,7
    400003d2:	c798                	c.sw	x14,8(x15)
    400003d4:	fe843783          	ld	x15,-24(x8)
    400003d8:	470d                	c.li	x14,3
    400003da:	cb98                	c.sw	x14,16(x15)
    400003dc:	fe043783          	ld	x15,-32(x8)
    400003e0:	439c                	c.lw	x15,0(x15)
    400003e2:	2781                	c.addiw	x15,0
    400003e4:	9bf9                	c.andi	x15,-2
    400003e6:	0007871b          	addiw	x14,x15,0
    400003ea:	fe043783          	ld	x15,-32(x8)
    400003ee:	c398                	c.sw	x14,0(x15)
    400003f0:	fcc42783          	lw	x15,-52(x8)
    400003f4:	2781                	c.addiw	x15,0
    400003f6:	e799                	c.bnez	x15,40000404 <uart_init+0x138>
    400003f8:	400027b7          	lui	x15,0x40002
    400003fc:	fe843703          	ld	x14,-24(x8)
    40000400:	3ee7b823          	sd	x14,1008(x15) # 400023f0 <uart0_ctl>
    40000404:	fe843783          	ld	x15,-24(x8)
    40000408:	853e                	c.mv	x10,x15
    4000040a:	70e2                	c.ldsp	x1,56(x2)
    4000040c:	7442                	c.ldsp	x8,48(x2)
    4000040e:	6121                	c.addi16sp	x2,64
    40000410:	8082                	c.jr	x1

0000000040000412 <uart_putc>:
    40000412:	1101                	c.addi	x2,-32
    40000414:	ec22                	c.sdsp	x8,24(x2)
    40000416:	1000                	c.addi4spn	x8,x2,32
    40000418:	87aa                	c.mv	x15,x10
    4000041a:	fef407a3          	sb	x15,-17(x8)
    4000041e:	0001                	c.addi	x0,0
    40000420:	400027b7          	lui	x15,0x40002
    40000424:	3f07b783          	ld	x15,1008(x15) # 400023f0 <uart0_ctl>
    40000428:	4bdc                	c.lw	x15,20(x15)
    4000042a:	2781                	c.addiw	x15,0
    4000042c:	0407f793          	andi	x15,x15,64
    40000430:	2781                	c.addiw	x15,0
    40000432:	d7fd                	c.beqz	x15,40000420 <uart_putc+0xe>
    40000434:	400027b7          	lui	x15,0x40002
    40000438:	3f07b783          	ld	x15,1008(x15) # 400023f0 <uart0_ctl>
    4000043c:	fef44703          	lbu	x14,-17(x8)
    40000440:	2701                	c.addiw	x14,0
    40000442:	c398                	c.sw	x14,0(x15)
    40000444:	0001                	c.addi	x0,0
    40000446:	6462                	c.ldsp	x8,24(x2)
    40000448:	6105                	c.addi16sp	x2,32
    4000044a:	8082                	c.jr	x1

000000004000044c <uart_send>:
    4000044c:	1101                	c.addi	x2,-32
    4000044e:	ec06                	c.sdsp	x1,24(x2)
    40000450:	e822                	c.sdsp	x8,16(x2)
    40000452:	1000                	c.addi4spn	x8,x2,32
    40000454:	fea43423          	sd	x10,-24(x8)
    40000458:	a829                	c.j	40000472 <uart_send+0x26>
    4000045a:	fe843783          	ld	x15,-24(x8)
    4000045e:	0007c783          	lbu	x15,0(x15)
    40000462:	853e                	c.mv	x10,x15
    40000464:	fafff0ef          	jal	x1,40000412 <uart_putc>
    40000468:	fe843783          	ld	x15,-24(x8)
    4000046c:	0785                	c.addi	x15,1
    4000046e:	fef43423          	sd	x15,-24(x8)
    40000472:	fe843783          	ld	x15,-24(x8)
    40000476:	0007c783          	lbu	x15,0(x15)
    4000047a:	f3e5                	c.bnez	x15,4000045a <uart_send+0xe>
    4000047c:	0001                	c.addi	x0,0
    4000047e:	0001                	c.addi	x0,0
    40000480:	60e2                	c.ldsp	x1,24(x2)
    40000482:	6442                	c.ldsp	x8,16(x2)
    40000484:	6105                	c.addi16sp	x2,32
    40000486:	8082                	c.jr	x1

0000000040000488 <uart_clock_init>:
    40000488:	7179                	c.addi16sp	x2,-48
    4000048a:	f406                	c.sdsp	x1,40(x2)
    4000048c:	f022                	c.sdsp	x8,32(x2)
    4000048e:	1800                	c.addi4spn	x8,x2,48
    40000490:	87aa                	c.mv	x15,x10
    40000492:	fcf42e23          	sw	x15,-36(x8)
    40000496:	020027b7          	lui	x15,0x2002
    4000049a:	90c78513          	addi	x10,x15,-1780 # 200190c <_start-0x3dffe6f4>
    4000049e:	d21ff0ef          	jal	x1,400001be <get32>
    400004a2:	87aa                	c.mv	x15,x10
    400004a4:	fef42623          	sw	x15,-20(x8)
    400004a8:	fdc42783          	lw	x15,-36(x8)
    400004ac:	4705                	c.li	x14,1
    400004ae:	00f717bb          	sllw	x15,x14,x15
    400004b2:	2781                	c.addiw	x15,0
    400004b4:	0007871b          	addiw	x14,x15,0
    400004b8:	fec42783          	lw	x15,-20(x8)
    400004bc:	8fd9                	c.or	x15,x14
    400004be:	fef42623          	sw	x15,-20(x8)
    400004c2:	fec42783          	lw	x15,-20(x8)
    400004c6:	85be                	c.mv	x11,x15
    400004c8:	020027b7          	lui	x15,0x2002
    400004cc:	90c78513          	addi	x10,x15,-1780 # 200190c <_start-0x3dffe6f4>
    400004d0:	ccdff0ef          	jal	x1,4000019c <put32>
    400004d4:	020027b7          	lui	x15,0x2002
    400004d8:	90c78513          	addi	x10,x15,-1780 # 200190c <_start-0x3dffe6f4>
    400004dc:	ce3ff0ef          	jal	x1,400001be <get32>
    400004e0:	87aa                	c.mv	x15,x10
    400004e2:	fef42623          	sw	x15,-20(x8)
    400004e6:	fdc42783          	lw	x15,-36(x8)
    400004ea:	27c1                	c.addiw	x15,16
    400004ec:	2781                	c.addiw	x15,0
    400004ee:	4705                	c.li	x14,1
    400004f0:	00f717bb          	sllw	x15,x14,x15
    400004f4:	2781                	c.addiw	x15,0
    400004f6:	0007871b          	addiw	x14,x15,0
    400004fa:	fec42783          	lw	x15,-20(x8)
    400004fe:	8fd9                	c.or	x15,x14
    40000500:	fef42623          	sw	x15,-20(x8)
    40000504:	fec42783          	lw	x15,-20(x8)
    40000508:	85be                	c.mv	x11,x15
    4000050a:	020027b7          	lui	x15,0x2002
    4000050e:	90c78513          	addi	x10,x15,-1780 # 200190c <_start-0x3dffe6f4>
    40000512:	c8bff0ef          	jal	x1,4000019c <put32>
    40000516:	0001                	c.addi	x0,0
    40000518:	70a2                	c.ldsp	x1,40(x2)
    4000051a:	7402                	c.ldsp	x8,32(x2)
    4000051c:	6145                	c.addi16sp	x2,48
    4000051e:	8082                	c.jr	x1

0000000040000520 <uart_set_gpio>:
    40000520:	1141                	c.addi	x2,-16
    40000522:	e406                	c.sdsp	x1,8(x2)
    40000524:	e022                	c.sdsp	x8,0(x2)
    40000526:	0800                	c.addi4spn	x8,x2,16
    40000528:	06600593          	addi	x11,x0,102
    4000052c:	020007b7          	lui	x15,0x2000
    40000530:	03478513          	addi	x10,x15,52 # 2000034 <_start-0x3dffffcc>
    40000534:	cbfff0ef          	jal	x1,400001f2 <write32>
    40000538:	02200593          	addi	x11,x0,34
    4000053c:	020007b7          	lui	x15,0x2000
    40000540:	04878513          	addi	x10,x15,72 # 2000048 <_start-0x3dffffb8>
    40000544:	cafff0ef          	jal	x1,400001f2 <write32>
    40000548:	000505b7          	lui	x11,0x50
    4000054c:	020007b7          	lui	x15,0x2000
    40000550:	05478513          	addi	x10,x15,84 # 2000054 <_start-0x3dffffac>
    40000554:	c9fff0ef          	jal	x1,400001f2 <write32>
    40000558:	0001                	c.addi	x0,0
    4000055a:	60a2                	c.ldsp	x1,8(x2)
    4000055c:	6402                	c.ldsp	x8,0(x2)
    4000055e:	0141                	c.addi	x2,16
    40000560:	8082                	c.jr	x1

0000000040000562 <uart_getc>:
    40000562:	1141                	c.addi	x2,-16
    40000564:	e422                	c.sdsp	x8,8(x2)
    40000566:	0800                	c.addi4spn	x8,x2,16
    40000568:	0001                	c.addi	x0,0
    4000056a:	400027b7          	lui	x15,0x40002
    4000056e:	3f07b783          	ld	x15,1008(x15) # 400023f0 <uart0_ctl>
    40000572:	4bdc                	c.lw	x15,20(x15)
    40000574:	2781                	c.addiw	x15,0
    40000576:	8b85                	c.andi	x15,1
    40000578:	2781                	c.addiw	x15,0
    4000057a:	dbe5                	c.beqz	x15,4000056a <uart_getc+0x8>
    4000057c:	400027b7          	lui	x15,0x40002
    40000580:	3f07b783          	ld	x15,1008(x15) # 400023f0 <uart0_ctl>
    40000584:	439c                	c.lw	x15,0(x15)
    40000586:	2781                	c.addiw	x15,0
    40000588:	0ff7f793          	andi	x15,x15,255
    4000058c:	853e                	c.mv	x10,x15
    4000058e:	6422                	c.ldsp	x8,8(x2)
    40000590:	0141                	c.addi	x2,16
    40000592:	8082                	c.jr	x1

0000000040000594 <strcmp>:
    40000594:	1101                	c.addi	x2,-32
    40000596:	ec22                	c.sdsp	x8,24(x2)
    40000598:	1000                	c.addi4spn	x8,x2,32
    4000059a:	fea43423          	sd	x10,-24(x8)
    4000059e:	feb43023          	sd	x11,-32(x8)
    400005a2:	a0a1                	c.j	400005ea <strcmp+0x56>
    400005a4:	fe843783          	ld	x15,-24(x8)
    400005a8:	0007c703          	lbu	x14,0(x15)
    400005ac:	fe043783          	ld	x15,-32(x8)
    400005b0:	0007c783          	lbu	x15,0(x15)
    400005b4:	02f70163          	beq	x14,x15,400005d6 <strcmp+0x42>
    400005b8:	fe843783          	ld	x15,-24(x8)
    400005bc:	0007c783          	lbu	x15,0(x15)
    400005c0:	0007871b          	addiw	x14,x15,0
    400005c4:	fe043783          	ld	x15,-32(x8)
    400005c8:	0007c783          	lbu	x15,0(x15)
    400005cc:	2781                	c.addiw	x15,0
    400005ce:	40f707bb          	subw	x15,x14,x15
    400005d2:	2781                	c.addiw	x15,0
    400005d4:	a099                	c.j	4000061a <strcmp+0x86>
    400005d6:	fe843783          	ld	x15,-24(x8)
    400005da:	0785                	c.addi	x15,1
    400005dc:	fef43423          	sd	x15,-24(x8)
    400005e0:	fe043783          	ld	x15,-32(x8)
    400005e4:	0785                	c.addi	x15,1
    400005e6:	fef43023          	sd	x15,-32(x8)
    400005ea:	fe843783          	ld	x15,-24(x8)
    400005ee:	0007c783          	lbu	x15,0(x15)
    400005f2:	c791                	c.beqz	x15,400005fe <strcmp+0x6a>
    400005f4:	fe043783          	ld	x15,-32(x8)
    400005f8:	0007c783          	lbu	x15,0(x15)
    400005fc:	f7c5                	c.bnez	x15,400005a4 <strcmp+0x10>
    400005fe:	fe843783          	ld	x15,-24(x8)
    40000602:	0007c783          	lbu	x15,0(x15)
    40000606:	0007871b          	addiw	x14,x15,0
    4000060a:	fe043783          	ld	x15,-32(x8)
    4000060e:	0007c783          	lbu	x15,0(x15)
    40000612:	2781                	c.addiw	x15,0
    40000614:	40f707bb          	subw	x15,x14,x15
    40000618:	2781                	c.addiw	x15,0
    4000061a:	853e                	c.mv	x10,x15
    4000061c:	6462                	c.ldsp	x8,24(x2)
    4000061e:	6105                	c.addi16sp	x2,32
    40000620:	8082                	c.jr	x1

0000000040000622 <_vsnprintf>:
    40000622:	7119                	c.addi16sp	x2,-128
    40000624:	fca2                	c.sdsp	x8,120(x2)
    40000626:	0100                	c.addi4spn	x8,x2,128
    40000628:	f8a43c23          	sd	x10,-104(x8)
    4000062c:	f8b43823          	sd	x11,-112(x8)
    40000630:	f8c43423          	sd	x12,-120(x8)
    40000634:	f8d43023          	sd	x13,-128(x8)
    40000638:	fe042623          	sw	x0,-20(x8)
    4000063c:	fe042423          	sw	x0,-24(x8)
    40000640:	fe043023          	sd	x0,-32(x8)
    40000644:	a665                	c.j	400009ec <_vsnprintf+0x3ca>
    40000646:	fec42783          	lw	x15,-20(x8)
    4000064a:	2781                	c.addiw	x15,0
    4000064c:	34078363          	beq	x15,x0,40000992 <_vsnprintf+0x370>
    40000650:	f8843783          	ld	x15,-120(x8)
    40000654:	0007c783          	lbu	x15,0(x15)
    40000658:	2781                	c.addiw	x15,0
    4000065a:	f9d7869b          	addiw	x13,x15,-99
    4000065e:	0006871b          	addiw	x14,x13,0
    40000662:	47d5                	c.li	x15,21
    40000664:	36e7ee63          	bltu	x15,x14,400009e0 <_vsnprintf+0x3be>
    40000668:	02069793          	slli	x15,x13,0x20
    4000066c:	9381                	c.srli	x15,0x20
    4000066e:	00279713          	slli	x14,x15,0x2
    40000672:	400017b7          	lui	x15,0x40001
    40000676:	73078793          	addi	x15,x15,1840 # 40001730 <memory_end+0x15>
    4000067a:	97ba                	c.add	x15,x14
    4000067c:	439c                	c.lw	x15,0(x15)
    4000067e:	8782                	c.jr	x15
    40000680:	4785                	c.li	x15,1
    40000682:	fef42423          	sw	x15,-24(x8)
    40000686:	aeb1                	c.j	400009e2 <_vsnprintf+0x3c0>
    40000688:	4785                	c.li	x15,1
    4000068a:	fef42423          	sw	x15,-24(x8)
    4000068e:	f9843783          	ld	x15,-104(x8)
    40000692:	c385                	c.beqz	x15,400006b2 <_vsnprintf+0x90>
    40000694:	fe043703          	ld	x14,-32(x8)
    40000698:	f9043783          	ld	x15,-112(x8)
    4000069c:	00f77b63          	bgeu	x14,x15,400006b2 <_vsnprintf+0x90>
    400006a0:	f9843703          	ld	x14,-104(x8)
    400006a4:	fe043783          	ld	x15,-32(x8)
    400006a8:	97ba                	c.add	x15,x14
    400006aa:	03000713          	addi	x14,x0,48
    400006ae:	00e78023          	sb	x14,0(x15)
    400006b2:	fe043783          	ld	x15,-32(x8)
    400006b6:	0785                	c.addi	x15,1
    400006b8:	fef43023          	sd	x15,-32(x8)
    400006bc:	f9843783          	ld	x15,-104(x8)
    400006c0:	c385                	c.beqz	x15,400006e0 <_vsnprintf+0xbe>
    400006c2:	fe043703          	ld	x14,-32(x8)
    400006c6:	f9043783          	ld	x15,-112(x8)
    400006ca:	00f77b63          	bgeu	x14,x15,400006e0 <_vsnprintf+0xbe>
    400006ce:	f9843703          	ld	x14,-104(x8)
    400006d2:	fe043783          	ld	x15,-32(x8)
    400006d6:	97ba                	c.add	x15,x14
    400006d8:	07800713          	addi	x14,x0,120
    400006dc:	00e78023          	sb	x14,0(x15)
    400006e0:	fe043783          	ld	x15,-32(x8)
    400006e4:	0785                	c.addi	x15,1
    400006e6:	fef43023          	sd	x15,-32(x8)
    400006ea:	fe842783          	lw	x15,-24(x8)
    400006ee:	2781                	c.addiw	x15,0
    400006f0:	cb89                	c.beqz	x15,40000702 <_vsnprintf+0xe0>
    400006f2:	f8043783          	ld	x15,-128(x8)
    400006f6:	00878713          	addi	x14,x15,8
    400006fa:	f8e43023          	sd	x14,-128(x8)
    400006fe:	639c                	c.ld	x15,0(x15)
    40000700:	a801                	c.j	40000710 <_vsnprintf+0xee>
    40000702:	f8043783          	ld	x15,-128(x8)
    40000706:	00878713          	addi	x14,x15,8
    4000070a:	f8e43023          	sd	x14,-128(x8)
    4000070e:	439c                	c.lw	x15,0(x15)
    40000710:	faf43423          	sd	x15,-88(x8)
    40000714:	fe842783          	lw	x15,-24(x8)
    40000718:	2781                	c.addiw	x15,0
    4000071a:	c399                	c.beqz	x15,40000720 <_vsnprintf+0xfe>
    4000071c:	47bd                	c.li	x15,15
    4000071e:	a011                	c.j	40000722 <_vsnprintf+0x100>
    40000720:	479d                	c.li	x15,7
    40000722:	faf42223          	sw	x15,-92(x8)
    40000726:	fa442783          	lw	x15,-92(x8)
    4000072a:	fcf42e23          	sw	x15,-36(x8)
    4000072e:	a041                	c.j	400007ae <_vsnprintf+0x18c>
    40000730:	fdc42783          	lw	x15,-36(x8)
    40000734:	0027979b          	slliw	x15,x15,0x2
    40000738:	2781                	c.addiw	x15,0
    4000073a:	fa843703          	ld	x14,-88(x8)
    4000073e:	40f757b3          	sra	x15,x14,x15
    40000742:	2781                	c.addiw	x15,0
    40000744:	8bbd                	c.andi	x15,15
    40000746:	faf42023          	sw	x15,-96(x8)
    4000074a:	f9843783          	ld	x15,-104(x8)
    4000074e:	c7b1                	c.beqz	x15,4000079a <_vsnprintf+0x178>
    40000750:	fe043703          	ld	x14,-32(x8)
    40000754:	f9043783          	ld	x15,-112(x8)
    40000758:	04f77163          	bgeu	x14,x15,4000079a <_vsnprintf+0x178>
    4000075c:	fa042783          	lw	x15,-96(x8)
    40000760:	0007871b          	addiw	x14,x15,0
    40000764:	47a5                	c.li	x15,9
    40000766:	00e7cb63          	blt	x15,x14,4000077c <_vsnprintf+0x15a>
    4000076a:	fa042783          	lw	x15,-96(x8)
    4000076e:	0ff7f793          	andi	x15,x15,255
    40000772:	0307879b          	addiw	x15,x15,48
    40000776:	0ff7f793          	andi	x15,x15,255
    4000077a:	a809                	c.j	4000078c <_vsnprintf+0x16a>
    4000077c:	fa042783          	lw	x15,-96(x8)
    40000780:	0ff7f793          	andi	x15,x15,255
    40000784:	0577879b          	addiw	x15,x15,87
    40000788:	0ff7f793          	andi	x15,x15,255
    4000078c:	f9843683          	ld	x13,-104(x8)
    40000790:	fe043703          	ld	x14,-32(x8)
    40000794:	9736                	c.add	x14,x13
    40000796:	00f70023          	sb	x15,0(x14)
    4000079a:	fe043783          	ld	x15,-32(x8)
    4000079e:	0785                	c.addi	x15,1
    400007a0:	fef43023          	sd	x15,-32(x8)
    400007a4:	fdc42783          	lw	x15,-36(x8)
    400007a8:	37fd                	c.addiw	x15,-1
    400007aa:	fcf42e23          	sw	x15,-36(x8)
    400007ae:	fdc42783          	lw	x15,-36(x8)
    400007b2:	2781                	c.addiw	x15,0
    400007b4:	f607dee3          	bge	x15,x0,40000730 <_vsnprintf+0x10e>
    400007b8:	fe042423          	sw	x0,-24(x8)
    400007bc:	fe042623          	sw	x0,-20(x8)
    400007c0:	a40d                	c.j	400009e2 <_vsnprintf+0x3c0>
    400007c2:	fe842783          	lw	x15,-24(x8)
    400007c6:	2781                	c.addiw	x15,0
    400007c8:	cb89                	c.beqz	x15,400007da <_vsnprintf+0x1b8>
    400007ca:	f8043783          	ld	x15,-128(x8)
    400007ce:	00878713          	addi	x14,x15,8
    400007d2:	f8e43023          	sd	x14,-128(x8)
    400007d6:	639c                	c.ld	x15,0(x15)
    400007d8:	a801                	c.j	400007e8 <_vsnprintf+0x1c6>
    400007da:	f8043783          	ld	x15,-128(x8)
    400007de:	00878713          	addi	x14,x15,8
    400007e2:	f8e43023          	sd	x14,-128(x8)
    400007e6:	439c                	c.lw	x15,0(x15)
    400007e8:	fcf43823          	sd	x15,-48(x8)
    400007ec:	fd043783          	ld	x15,-48(x8)
    400007f0:	0207df63          	bge	x15,x0,4000082e <_vsnprintf+0x20c>
    400007f4:	fd043783          	ld	x15,-48(x8)
    400007f8:	40f007b3          	sub	x15,x0,x15
    400007fc:	fcf43823          	sd	x15,-48(x8)
    40000800:	f9843783          	ld	x15,-104(x8)
    40000804:	c385                	c.beqz	x15,40000824 <_vsnprintf+0x202>
    40000806:	fe043703          	ld	x14,-32(x8)
    4000080a:	f9043783          	ld	x15,-112(x8)
    4000080e:	00f77b63          	bgeu	x14,x15,40000824 <_vsnprintf+0x202>
    40000812:	f9843703          	ld	x14,-104(x8)
    40000816:	fe043783          	ld	x15,-32(x8)
    4000081a:	97ba                	c.add	x15,x14
    4000081c:	02d00713          	addi	x14,x0,45
    40000820:	00e78023          	sb	x14,0(x15)
    40000824:	fe043783          	ld	x15,-32(x8)
    40000828:	0785                	c.addi	x15,1
    4000082a:	fef43023          	sd	x15,-32(x8)
    4000082e:	4785                	c.li	x15,1
    40000830:	fcf43423          	sd	x15,-56(x8)
    40000834:	fd043783          	ld	x15,-48(x8)
    40000838:	fcf43023          	sd	x15,-64(x8)
    4000083c:	a031                	c.j	40000848 <_vsnprintf+0x226>
    4000083e:	fc843783          	ld	x15,-56(x8)
    40000842:	0785                	c.addi	x15,1
    40000844:	fcf43423          	sd	x15,-56(x8)
    40000848:	fc043703          	ld	x14,-64(x8)
    4000084c:	47a9                	c.li	x15,10
    4000084e:	02f747b3          	div	x15,x14,x15
    40000852:	fcf43023          	sd	x15,-64(x8)
    40000856:	fc043783          	ld	x15,-64(x8)
    4000085a:	f3f5                	c.bnez	x15,4000083e <_vsnprintf+0x21c>
    4000085c:	fc843783          	ld	x15,-56(x8)
    40000860:	2781                	c.addiw	x15,0
    40000862:	37fd                	c.addiw	x15,-1
    40000864:	2781                	c.addiw	x15,0
    40000866:	faf42e23          	sw	x15,-68(x8)
    4000086a:	a8b1                	c.j	400008c6 <_vsnprintf+0x2a4>
    4000086c:	f9843783          	ld	x15,-104(x8)
    40000870:	cf9d                	c.beqz	x15,400008ae <_vsnprintf+0x28c>
    40000872:	fbc42703          	lw	x14,-68(x8)
    40000876:	fe043783          	ld	x15,-32(x8)
    4000087a:	97ba                	c.add	x15,x14
    4000087c:	f9043703          	ld	x14,-112(x8)
    40000880:	02e7f763          	bgeu	x15,x14,400008ae <_vsnprintf+0x28c>
    40000884:	fd043703          	ld	x14,-48(x8)
    40000888:	47a9                	c.li	x15,10
    4000088a:	02f767b3          	rem	x15,x14,x15
    4000088e:	0ff7f713          	andi	x14,x15,255
    40000892:	fbc42683          	lw	x13,-68(x8)
    40000896:	fe043783          	ld	x15,-32(x8)
    4000089a:	97b6                	c.add	x15,x13
    4000089c:	f9843683          	ld	x13,-104(x8)
    400008a0:	97b6                	c.add	x15,x13
    400008a2:	0307071b          	addiw	x14,x14,48
    400008a6:	0ff77713          	andi	x14,x14,255
    400008aa:	00e78023          	sb	x14,0(x15)
    400008ae:	fd043703          	ld	x14,-48(x8)
    400008b2:	47a9                	c.li	x15,10
    400008b4:	02f747b3          	div	x15,x14,x15
    400008b8:	fcf43823          	sd	x15,-48(x8)
    400008bc:	fbc42783          	lw	x15,-68(x8)
    400008c0:	37fd                	c.addiw	x15,-1
    400008c2:	faf42e23          	sw	x15,-68(x8)
    400008c6:	fbc42783          	lw	x15,-68(x8)
    400008ca:	2781                	c.addiw	x15,0
    400008cc:	fa07d0e3          	bge	x15,x0,4000086c <_vsnprintf+0x24a>
    400008d0:	fc843783          	ld	x15,-56(x8)
    400008d4:	fe043703          	ld	x14,-32(x8)
    400008d8:	97ba                	c.add	x15,x14
    400008da:	fef43023          	sd	x15,-32(x8)
    400008de:	fe042423          	sw	x0,-24(x8)
    400008e2:	fe042623          	sw	x0,-20(x8)
    400008e6:	a8f5                	c.j	400009e2 <_vsnprintf+0x3c0>
    400008e8:	f8043783          	ld	x15,-128(x8)
    400008ec:	00878713          	addi	x14,x15,8
    400008f0:	f8e43023          	sd	x14,-128(x8)
    400008f4:	639c                	c.ld	x15,0(x15)
    400008f6:	faf43823          	sd	x15,-80(x8)
    400008fa:	a83d                	c.j	40000938 <_vsnprintf+0x316>
    400008fc:	f9843783          	ld	x15,-104(x8)
    40000900:	c395                	c.beqz	x15,40000924 <_vsnprintf+0x302>
    40000902:	fe043703          	ld	x14,-32(x8)
    40000906:	f9043783          	ld	x15,-112(x8)
    4000090a:	00f77d63          	bgeu	x14,x15,40000924 <_vsnprintf+0x302>
    4000090e:	f9843703          	ld	x14,-104(x8)
    40000912:	fe043783          	ld	x15,-32(x8)
    40000916:	97ba                	c.add	x15,x14
    40000918:	fb043703          	ld	x14,-80(x8)
    4000091c:	00074703          	lbu	x14,0(x14)
    40000920:	00e78023          	sb	x14,0(x15)
    40000924:	fe043783          	ld	x15,-32(x8)
    40000928:	0785                	c.addi	x15,1
    4000092a:	fef43023          	sd	x15,-32(x8)
    4000092e:	fb043783          	ld	x15,-80(x8)
    40000932:	0785                	c.addi	x15,1
    40000934:	faf43823          	sd	x15,-80(x8)
    40000938:	fb043783          	ld	x15,-80(x8)
    4000093c:	0007c783          	lbu	x15,0(x15)
    40000940:	ffd5                	c.bnez	x15,400008fc <_vsnprintf+0x2da>
    40000942:	fe042423          	sw	x0,-24(x8)
    40000946:	fe042623          	sw	x0,-20(x8)
    4000094a:	a861                	c.j	400009e2 <_vsnprintf+0x3c0>
    4000094c:	f9843783          	ld	x15,-104(x8)
    40000950:	c79d                	c.beqz	x15,4000097e <_vsnprintf+0x35c>
    40000952:	fe043703          	ld	x14,-32(x8)
    40000956:	f9043783          	ld	x15,-112(x8)
    4000095a:	02f77263          	bgeu	x14,x15,4000097e <_vsnprintf+0x35c>
    4000095e:	f8043783          	ld	x15,-128(x8)
    40000962:	00878713          	addi	x14,x15,8
    40000966:	f8e43023          	sd	x14,-128(x8)
    4000096a:	4394                	c.lw	x13,0(x15)
    4000096c:	f9843703          	ld	x14,-104(x8)
    40000970:	fe043783          	ld	x15,-32(x8)
    40000974:	97ba                	c.add	x15,x14
    40000976:	0ff6f713          	andi	x14,x13,255
    4000097a:	00e78023          	sb	x14,0(x15)
    4000097e:	fe043783          	ld	x15,-32(x8)
    40000982:	0785                	c.addi	x15,1
    40000984:	fef43023          	sd	x15,-32(x8)
    40000988:	fe042423          	sw	x0,-24(x8)
    4000098c:	fe042623          	sw	x0,-20(x8)
    40000990:	a889                	c.j	400009e2 <_vsnprintf+0x3c0>
    40000992:	f8843783          	ld	x15,-120(x8)
    40000996:	0007c783          	lbu	x15,0(x15)
    4000099a:	873e                	c.mv	x14,x15
    4000099c:	02500793          	addi	x15,x0,37
    400009a0:	00f71663          	bne	x14,x15,400009ac <_vsnprintf+0x38a>
    400009a4:	4785                	c.li	x15,1
    400009a6:	fef42623          	sw	x15,-20(x8)
    400009aa:	a825                	c.j	400009e2 <_vsnprintf+0x3c0>
    400009ac:	f9843783          	ld	x15,-104(x8)
    400009b0:	c395                	c.beqz	x15,400009d4 <_vsnprintf+0x3b2>
    400009b2:	fe043703          	ld	x14,-32(x8)
    400009b6:	f9043783          	ld	x15,-112(x8)
    400009ba:	00f77d63          	bgeu	x14,x15,400009d4 <_vsnprintf+0x3b2>
    400009be:	f9843703          	ld	x14,-104(x8)
    400009c2:	fe043783          	ld	x15,-32(x8)
    400009c6:	97ba                	c.add	x15,x14
    400009c8:	f8843703          	ld	x14,-120(x8)
    400009cc:	00074703          	lbu	x14,0(x14)
    400009d0:	00e78023          	sb	x14,0(x15)
    400009d4:	fe043783          	ld	x15,-32(x8)
    400009d8:	0785                	c.addi	x15,1
    400009da:	fef43023          	sd	x15,-32(x8)
    400009de:	a011                	c.j	400009e2 <_vsnprintf+0x3c0>
    400009e0:	0001                	c.addi	x0,0
    400009e2:	f8843783          	ld	x15,-120(x8)
    400009e6:	0785                	c.addi	x15,1
    400009e8:	f8f43423          	sd	x15,-120(x8)
    400009ec:	f8843783          	ld	x15,-120(x8)
    400009f0:	0007c783          	lbu	x15,0(x15)
    400009f4:	c40799e3          	bne	x15,x0,40000646 <_vsnprintf+0x24>
    400009f8:	f9843783          	ld	x15,-104(x8)
    400009fc:	cf99                	c.beqz	x15,40000a1a <_vsnprintf+0x3f8>
    400009fe:	fe043703          	ld	x14,-32(x8)
    40000a02:	f9043783          	ld	x15,-112(x8)
    40000a06:	00f77a63          	bgeu	x14,x15,40000a1a <_vsnprintf+0x3f8>
    40000a0a:	f9843703          	ld	x14,-104(x8)
    40000a0e:	fe043783          	ld	x15,-32(x8)
    40000a12:	97ba                	c.add	x15,x14
    40000a14:	00078023          	sb	x0,0(x15)
    40000a18:	a839                	c.j	40000a36 <_vsnprintf+0x414>
    40000a1a:	f9843783          	ld	x15,-104(x8)
    40000a1e:	cf81                	c.beqz	x15,40000a36 <_vsnprintf+0x414>
    40000a20:	f9043783          	ld	x15,-112(x8)
    40000a24:	cb89                	c.beqz	x15,40000a36 <_vsnprintf+0x414>
    40000a26:	f9043783          	ld	x15,-112(x8)
    40000a2a:	17fd                	c.addi	x15,-1
    40000a2c:	f9843703          	ld	x14,-104(x8)
    40000a30:	97ba                	c.add	x15,x14
    40000a32:	00078023          	sb	x0,0(x15)
    40000a36:	fe043783          	ld	x15,-32(x8)
    40000a3a:	2781                	c.addiw	x15,0
    40000a3c:	853e                	c.mv	x10,x15
    40000a3e:	7466                	c.ldsp	x8,120(x2)
    40000a40:	6109                	c.addi16sp	x2,128
    40000a42:	8082                	c.jr	x1

0000000040000a44 <_vprintf>:
    40000a44:	7179                	c.addi16sp	x2,-48
    40000a46:	f406                	c.sdsp	x1,40(x2)
    40000a48:	f022                	c.sdsp	x8,32(x2)
    40000a4a:	1800                	c.addi4spn	x8,x2,48
    40000a4c:	fca43c23          	sd	x10,-40(x8)
    40000a50:	fcb43823          	sd	x11,-48(x8)
    40000a54:	fd043683          	ld	x13,-48(x8)
    40000a58:	fd843603          	ld	x12,-40(x8)
    40000a5c:	55fd                	c.li	x11,-1
    40000a5e:	4501                	c.li	x10,0
    40000a60:	bc3ff0ef          	jal	x1,40000622 <_vsnprintf>
    40000a64:	87aa                	c.mv	x15,x10
    40000a66:	fef42623          	sw	x15,-20(x8)
    40000a6a:	fec42783          	lw	x15,-20(x8)
    40000a6e:	2785                	c.addiw	x15,1
    40000a70:	2781                	c.addiw	x15,0
    40000a72:	2781                	c.addiw	x15,0
    40000a74:	873e                	c.mv	x14,x15
    40000a76:	3e700793          	addi	x15,x0,999
    40000a7a:	00e7f963          	bgeu	x15,x14,40000a8c <_vprintf+0x48>
    40000a7e:	400017b7          	lui	x15,0x40001
    40000a82:	78878513          	addi	x10,x15,1928 # 40001788 <memory_end+0x6d>
    40000a86:	9c7ff0ef          	jal	x1,4000044c <uart_send>
    40000a8a:	a001                	c.j	40000a8a <_vprintf+0x46>
    40000a8c:	fec42783          	lw	x15,-20(x8)
    40000a90:	2785                	c.addiw	x15,1
    40000a92:	2781                	c.addiw	x15,0
    40000a94:	fd043683          	ld	x13,-48(x8)
    40000a98:	fd843603          	ld	x12,-40(x8)
    40000a9c:	85be                	c.mv	x11,x15
    40000a9e:	400027b7          	lui	x15,0x40002
    40000aa2:	00078513          	addi	x10,x15,0 # 40002000 <out_buf>
    40000aa6:	b7dff0ef          	jal	x1,40000622 <_vsnprintf>
    40000aaa:	400027b7          	lui	x15,0x40002
    40000aae:	00078513          	addi	x10,x15,0 # 40002000 <out_buf>
    40000ab2:	99bff0ef          	jal	x1,4000044c <uart_send>
    40000ab6:	fec42783          	lw	x15,-20(x8)
    40000aba:	853e                	c.mv	x10,x15
    40000abc:	70a2                	c.ldsp	x1,40(x2)
    40000abe:	7402                	c.ldsp	x8,32(x2)
    40000ac0:	6145                	c.addi16sp	x2,48
    40000ac2:	8082                	c.jr	x1

0000000040000ac4 <printf>:
    40000ac4:	7159                	c.addi16sp	x2,-112
    40000ac6:	f406                	c.sdsp	x1,40(x2)
    40000ac8:	f022                	c.sdsp	x8,32(x2)
    40000aca:	1800                	c.addi4spn	x8,x2,48
    40000acc:	fca43c23          	sd	x10,-40(x8)
    40000ad0:	e40c                	c.sd	x11,8(x8)
    40000ad2:	e810                	c.sd	x12,16(x8)
    40000ad4:	ec14                	c.sd	x13,24(x8)
    40000ad6:	f018                	c.sd	x14,32(x8)
    40000ad8:	f41c                	c.sd	x15,40(x8)
    40000ada:	03043823          	sd	x16,48(x8)
    40000ade:	03143c23          	sd	x17,56(x8)
    40000ae2:	fe042623          	sw	x0,-20(x8)
    40000ae6:	04040793          	addi	x15,x8,64
    40000aea:	fcf43823          	sd	x15,-48(x8)
    40000aee:	fd043783          	ld	x15,-48(x8)
    40000af2:	fc878793          	addi	x15,x15,-56
    40000af6:	fef43023          	sd	x15,-32(x8)
    40000afa:	fe043783          	ld	x15,-32(x8)
    40000afe:	85be                	c.mv	x11,x15
    40000b00:	fd843503          	ld	x10,-40(x8)
    40000b04:	f41ff0ef          	jal	x1,40000a44 <_vprintf>
    40000b08:	87aa                	c.mv	x15,x10
    40000b0a:	fef42623          	sw	x15,-20(x8)
    40000b0e:	fec42783          	lw	x15,-20(x8)
    40000b12:	853e                	c.mv	x10,x15
    40000b14:	70a2                	c.ldsp	x1,40(x2)
    40000b16:	7402                	c.ldsp	x8,32(x2)
    40000b18:	6165                	c.addi16sp	x2,112
    40000b1a:	8082                	c.jr	x1

0000000040000b1c <debug>:
    40000b1c:	7159                	c.addi16sp	x2,-112
    40000b1e:	f406                	c.sdsp	x1,40(x2)
    40000b20:	f022                	c.sdsp	x8,32(x2)
    40000b22:	1800                	c.addi4spn	x8,x2,48
    40000b24:	fca43c23          	sd	x10,-40(x8)
    40000b28:	e40c                	c.sd	x11,8(x8)
    40000b2a:	e810                	c.sd	x12,16(x8)
    40000b2c:	ec14                	c.sd	x13,24(x8)
    40000b2e:	f018                	c.sd	x14,32(x8)
    40000b30:	f41c                	c.sd	x15,40(x8)
    40000b32:	03043823          	sd	x16,48(x8)
    40000b36:	03143c23          	sd	x17,56(x8)
    40000b3a:	fe042623          	sw	x0,-20(x8)
    40000b3e:	04040793          	addi	x15,x8,64
    40000b42:	fcf43823          	sd	x15,-48(x8)
    40000b46:	fd043783          	ld	x15,-48(x8)
    40000b4a:	fc878793          	addi	x15,x15,-56
    40000b4e:	fef43023          	sd	x15,-32(x8)
    40000b52:	fe043783          	ld	x15,-32(x8)
    40000b56:	85be                	c.mv	x11,x15
    40000b58:	fd843503          	ld	x10,-40(x8)
    40000b5c:	ee9ff0ef          	jal	x1,40000a44 <_vprintf>
    40000b60:	87aa                	c.mv	x15,x10
    40000b62:	fef42623          	sw	x15,-20(x8)
    40000b66:	400017b7          	lui	x15,0x40001
    40000b6a:	7b078513          	addi	x10,x15,1968 # 400017b0 <memory_end+0x95>
    40000b6e:	8dfff0ef          	jal	x1,4000044c <uart_send>
    40000b72:	fec42783          	lw	x15,-20(x8)
    40000b76:	853e                	c.mv	x10,x15
    40000b78:	70a2                	c.ldsp	x1,40(x2)
    40000b7a:	7402                	c.ldsp	x8,32(x2)
    40000b7c:	6165                	c.addi16sp	x2,112
    40000b7e:	8082                	c.jr	x1

0000000040000b80 <round_up>:
    40000b80:	1101                	c.addi	x2,-32
    40000b82:	ec22                	c.sdsp	x8,24(x2)
    40000b84:	1000                	c.addi4spn	x8,x2,32
    40000b86:	87aa                	c.mv	x15,x10
    40000b88:	872e                	c.mv	x14,x11
    40000b8a:	fef42623          	sw	x15,-20(x8)
    40000b8e:	87ba                	c.mv	x15,x14
    40000b90:	fef42423          	sw	x15,-24(x8)
    40000b94:	fec42703          	lw	x14,-20(x8)
    40000b98:	fe842783          	lw	x15,-24(x8)
    40000b9c:	9fb9                	c.addw	x15,x14
    40000b9e:	2781                	c.addiw	x15,0
    40000ba0:	37fd                	c.addiw	x15,-1
    40000ba2:	0007871b          	addiw	x14,x15,0
    40000ba6:	fe842783          	lw	x15,-24(x8)
    40000baa:	02f757bb          	divuw	x15,x14,x15
    40000bae:	2781                	c.addiw	x15,0
    40000bb0:	fe842703          	lw	x14,-24(x8)
    40000bb4:	02f707bb          	mulw	x15,x14,x15
    40000bb8:	2781                	c.addiw	x15,0
    40000bba:	853e                	c.mv	x10,x15
    40000bbc:	6462                	c.ldsp	x8,24(x2)
    40000bbe:	6105                	c.addi16sp	x2,32
    40000bc0:	8082                	c.jr	x1

0000000040000bc2 <round_down>:
    40000bc2:	1101                	c.addi	x2,-32
    40000bc4:	ec22                	c.sdsp	x8,24(x2)
    40000bc6:	1000                	c.addi4spn	x8,x2,32
    40000bc8:	87aa                	c.mv	x15,x10
    40000bca:	872e                	c.mv	x14,x11
    40000bcc:	fef42623          	sw	x15,-20(x8)
    40000bd0:	87ba                	c.mv	x15,x14
    40000bd2:	fef42423          	sw	x15,-24(x8)
    40000bd6:	fec42703          	lw	x14,-20(x8)
    40000bda:	fe842783          	lw	x15,-24(x8)
    40000bde:	02f757bb          	divuw	x15,x14,x15
    40000be2:	2781                	c.addiw	x15,0
    40000be4:	fe842703          	lw	x14,-24(x8)
    40000be8:	02f707bb          	mulw	x15,x14,x15
    40000bec:	2781                	c.addiw	x15,0
    40000bee:	853e                	c.mv	x10,x15
    40000bf0:	6462                	c.ldsp	x8,24(x2)
    40000bf2:	6105                	c.addi16sp	x2,32
    40000bf4:	8082                	c.jr	x1

0000000040000bf6 <read_4byte>:
    40000bf6:	1101                	c.addi	x2,-32
    40000bf8:	ec22                	c.sdsp	x8,24(x2)
    40000bfa:	1000                	c.addi4spn	x8,x2,32
    40000bfc:	fea43423          	sd	x10,-24(x8)
    40000c00:	fe843783          	ld	x15,-24(x8)
    40000c04:	439c                	c.lw	x15,0(x15)
    40000c06:	853e                	c.mv	x10,x15
    40000c08:	6462                	c.ldsp	x8,24(x2)
    40000c0a:	6105                	c.addi16sp	x2,32
    40000c0c:	8082                	c.jr	x1

0000000040000c0e <get_payload>:
    40000c0e:	1101                	c.addi	x2,-32
    40000c10:	ec22                	c.sdsp	x8,24(x2)
    40000c12:	1000                	c.addi4spn	x8,x2,32
    40000c14:	fea43423          	sd	x10,-24(x8)
    40000c18:	fe843783          	ld	x15,-24(x8)
    40000c1c:	0791                	c.addi	x15,4
    40000c1e:	853e                	c.mv	x10,x15
    40000c20:	6462                	c.ldsp	x8,24(x2)
    40000c22:	6105                	c.addi16sp	x2,32
    40000c24:	8082                	c.jr	x1

0000000040000c26 <get_blocksize>:
    40000c26:	7179                	c.addi16sp	x2,-48
    40000c28:	f406                	c.sdsp	x1,40(x2)
    40000c2a:	f022                	c.sdsp	x8,32(x2)
    40000c2c:	1800                	c.addi4spn	x8,x2,48
    40000c2e:	fca43c23          	sd	x10,-40(x8)
    40000c32:	fd843503          	ld	x10,-40(x8)
    40000c36:	fc1ff0ef          	jal	x1,40000bf6 <read_4byte>
    40000c3a:	87aa                	c.mv	x15,x10
    40000c3c:	fef42623          	sw	x15,-20(x8)
    40000c40:	fec42783          	lw	x15,-20(x8)
    40000c44:	9bf9                	c.andi	x15,-2
    40000c46:	2781                	c.addiw	x15,0
    40000c48:	853e                	c.mv	x10,x15
    40000c4a:	70a2                	c.ldsp	x1,40(x2)
    40000c4c:	7402                	c.ldsp	x8,32(x2)
    40000c4e:	6145                	c.addi16sp	x2,48
    40000c50:	8082                	c.jr	x1

0000000040000c52 <get_allocated>:
    40000c52:	7179                	c.addi16sp	x2,-48
    40000c54:	f406                	c.sdsp	x1,40(x2)
    40000c56:	f022                	c.sdsp	x8,32(x2)
    40000c58:	1800                	c.addi4spn	x8,x2,48
    40000c5a:	fca43c23          	sd	x10,-40(x8)
    40000c5e:	fd843503          	ld	x10,-40(x8)
    40000c62:	f95ff0ef          	jal	x1,40000bf6 <read_4byte>
    40000c66:	87aa                	c.mv	x15,x10
    40000c68:	fef42623          	sw	x15,-20(x8)
    40000c6c:	fec42783          	lw	x15,-20(x8)
    40000c70:	8b85                	c.andi	x15,1
    40000c72:	2781                	c.addiw	x15,0
    40000c74:	853e                	c.mv	x10,x15
    40000c76:	70a2                	c.ldsp	x1,40(x2)
    40000c78:	7402                	c.ldsp	x8,32(x2)
    40000c7a:	6145                	c.addi16sp	x2,48
    40000c7c:	8082                	c.jr	x1

0000000040000c7e <get_nextblock>:
    40000c7e:	7179                	c.addi16sp	x2,-48
    40000c80:	f406                	c.sdsp	x1,40(x2)
    40000c82:	f022                	c.sdsp	x8,32(x2)
    40000c84:	1800                	c.addi4spn	x8,x2,48
    40000c86:	fca43c23          	sd	x10,-40(x8)
    40000c8a:	fd843503          	ld	x10,-40(x8)
    40000c8e:	f99ff0ef          	jal	x1,40000c26 <get_blocksize>
    40000c92:	87aa                	c.mv	x15,x10
    40000c94:	fef42623          	sw	x15,-20(x8)
    40000c98:	fec46783          	lwu	x15,-20(x8)
    40000c9c:	fd843703          	ld	x14,-40(x8)
    40000ca0:	97ba                	c.add	x15,x14
    40000ca2:	fef43023          	sd	x15,-32(x8)
    40000ca6:	fe043783          	ld	x15,-32(x8)
    40000caa:	853e                	c.mv	x10,x15
    40000cac:	70a2                	c.ldsp	x1,40(x2)
    40000cae:	7402                	c.ldsp	x8,32(x2)
    40000cb0:	6145                	c.addi16sp	x2,48
    40000cb2:	8082                	c.jr	x1

0000000040000cb4 <get_prveblock>:
    40000cb4:	7179                	c.addi16sp	x2,-48
    40000cb6:	f406                	c.sdsp	x1,40(x2)
    40000cb8:	f022                	c.sdsp	x8,32(x2)
    40000cba:	1800                	c.addi4spn	x8,x2,48
    40000cbc:	fca43c23          	sd	x10,-40(x8)
    40000cc0:	fd843783          	ld	x15,-40(x8)
    40000cc4:	17f1                	c.addi	x15,-4
    40000cc6:	853e                	c.mv	x10,x15
    40000cc8:	f5fff0ef          	jal	x1,40000c26 <get_blocksize>
    40000ccc:	87aa                	c.mv	x15,x10
    40000cce:	fef42623          	sw	x15,-20(x8)
    40000cd2:	fec46783          	lwu	x15,-20(x8)
    40000cd6:	fd843703          	ld	x14,-40(x8)
    40000cda:	40f707b3          	sub	x15,x14,x15
    40000cde:	fef43023          	sd	x15,-32(x8)
    40000ce2:	fe043783          	ld	x15,-32(x8)
    40000ce6:	853e                	c.mv	x10,x15
    40000ce8:	70a2                	c.ldsp	x1,40(x2)
    40000cea:	7402                	c.ldsp	x8,32(x2)
    40000cec:	6145                	c.addi16sp	x2,48
    40000cee:	8082                	c.jr	x1

0000000040000cf0 <set_block>:
    40000cf0:	1101                	c.addi	x2,-32
    40000cf2:	ec06                	c.sdsp	x1,24(x2)
    40000cf4:	e822                	c.sdsp	x8,16(x2)
    40000cf6:	1000                	c.addi4spn	x8,x2,32
    40000cf8:	fea43423          	sd	x10,-24(x8)
    40000cfc:	87ae                	c.mv	x15,x11
    40000cfe:	8732                	c.mv	x14,x12
    40000d00:	fef42223          	sw	x15,-28(x8)
    40000d04:	87ba                	c.mv	x15,x14
    40000d06:	fef42023          	sw	x15,-32(x8)
    40000d0a:	fe442783          	lw	x15,-28(x8)
    40000d0e:	2781                	c.addiw	x15,0
    40000d10:	cbad                	c.beqz	x15,40000d82 <set_block+0x92>
    40000d12:	fe843783          	ld	x15,-24(x8)
    40000d16:	4398                	c.lw	x14,0(x15)
    40000d18:	fe843783          	ld	x15,-24(x8)
    40000d1c:	8b05                	c.andi	x14,1
    40000d1e:	2701                	c.addiw	x14,0
    40000d20:	c398                	c.sw	x14,0(x15)
    40000d22:	fe843783          	ld	x15,-24(x8)
    40000d26:	4394                	c.lw	x13,0(x15)
    40000d28:	fe843783          	ld	x15,-24(x8)
    40000d2c:	fe442703          	lw	x14,-28(x8)
    40000d30:	8f55                	c.or	x14,x13
    40000d32:	2701                	c.addiw	x14,0
    40000d34:	c398                	c.sw	x14,0(x15)
    40000d36:	fe446703          	lwu	x14,-28(x8)
    40000d3a:	fe843783          	ld	x15,-24(x8)
    40000d3e:	97ba                	c.add	x15,x14
    40000d40:	17f1                	c.addi	x15,-4
    40000d42:	4394                	c.lw	x13,0(x15)
    40000d44:	fe446703          	lwu	x14,-28(x8)
    40000d48:	fe843783          	ld	x15,-24(x8)
    40000d4c:	97ba                	c.add	x15,x14
    40000d4e:	17f1                	c.addi	x15,-4
    40000d50:	873e                	c.mv	x14,x15
    40000d52:	87b6                	c.mv	x15,x13
    40000d54:	8b85                	c.andi	x15,1
    40000d56:	2781                	c.addiw	x15,0
    40000d58:	c31c                	c.sw	x15,0(x14)
    40000d5a:	fe446703          	lwu	x14,-28(x8)
    40000d5e:	fe843783          	ld	x15,-24(x8)
    40000d62:	97ba                	c.add	x15,x14
    40000d64:	17f1                	c.addi	x15,-4
    40000d66:	4394                	c.lw	x13,0(x15)
    40000d68:	fe446703          	lwu	x14,-28(x8)
    40000d6c:	fe843783          	ld	x15,-24(x8)
    40000d70:	97ba                	c.add	x15,x14
    40000d72:	17f1                	c.addi	x15,-4
    40000d74:	873e                	c.mv	x14,x15
    40000d76:	fe442783          	lw	x15,-28(x8)
    40000d7a:	8fd5                	c.or	x15,x13
    40000d7c:	2781                	c.addiw	x15,0
    40000d7e:	c31c                	c.sw	x15,0(x14)
    40000d80:	a801                	c.j	40000d90 <set_block+0xa0>
    40000d82:	fe843503          	ld	x10,-24(x8)
    40000d86:	ea1ff0ef          	jal	x1,40000c26 <get_blocksize>
    40000d8a:	87aa                	c.mv	x15,x10
    40000d8c:	fef42223          	sw	x15,-28(x8)
    40000d90:	fe843783          	ld	x15,-24(x8)
    40000d94:	4398                	c.lw	x14,0(x15)
    40000d96:	fe843783          	ld	x15,-24(x8)
    40000d9a:	9b79                	c.andi	x14,-2
    40000d9c:	2701                	c.addiw	x14,0
    40000d9e:	c398                	c.sw	x14,0(x15)
    40000da0:	fe843783          	ld	x15,-24(x8)
    40000da4:	4394                	c.lw	x13,0(x15)
    40000da6:	fe843783          	ld	x15,-24(x8)
    40000daa:	fe042703          	lw	x14,-32(x8)
    40000dae:	8f55                	c.or	x14,x13
    40000db0:	2701                	c.addiw	x14,0
    40000db2:	c398                	c.sw	x14,0(x15)
    40000db4:	fe446703          	lwu	x14,-28(x8)
    40000db8:	fe843783          	ld	x15,-24(x8)
    40000dbc:	97ba                	c.add	x15,x14
    40000dbe:	17f1                	c.addi	x15,-4
    40000dc0:	4394                	c.lw	x13,0(x15)
    40000dc2:	fe446703          	lwu	x14,-28(x8)
    40000dc6:	fe843783          	ld	x15,-24(x8)
    40000dca:	97ba                	c.add	x15,x14
    40000dcc:	17f1                	c.addi	x15,-4
    40000dce:	873e                	c.mv	x14,x15
    40000dd0:	87b6                	c.mv	x15,x13
    40000dd2:	9bf9                	c.andi	x15,-2
    40000dd4:	2781                	c.addiw	x15,0
    40000dd6:	c31c                	c.sw	x15,0(x14)
    40000dd8:	fe446703          	lwu	x14,-28(x8)
    40000ddc:	fe843783          	ld	x15,-24(x8)
    40000de0:	97ba                	c.add	x15,x14
    40000de2:	17f1                	c.addi	x15,-4
    40000de4:	4394                	c.lw	x13,0(x15)
    40000de6:	fe042783          	lw	x15,-32(x8)
    40000dea:	8b85                	c.andi	x15,1
    40000dec:	0007861b          	addiw	x12,x15,0
    40000df0:	fe446703          	lwu	x14,-28(x8)
    40000df4:	fe843783          	ld	x15,-24(x8)
    40000df8:	97ba                	c.add	x15,x14
    40000dfa:	17f1                	c.addi	x15,-4
    40000dfc:	873e                	c.mv	x14,x15
    40000dfe:	87b2                	c.mv	x15,x12
    40000e00:	8fd5                	c.or	x15,x13
    40000e02:	2781                	c.addiw	x15,0
    40000e04:	c31c                	c.sw	x15,0(x14)
    40000e06:	0001                	c.addi	x0,0
    40000e08:	853e                	c.mv	x10,x15
    40000e0a:	60e2                	c.ldsp	x1,24(x2)
    40000e0c:	6442                	c.ldsp	x8,16(x2)
    40000e0e:	6105                	c.addi16sp	x2,32
    40000e10:	8082                	c.jr	x1

0000000040000e12 <mem_alloc>:
    40000e12:	7139                	c.addi16sp	x2,-64
    40000e14:	fc06                	c.sdsp	x1,56(x2)
    40000e16:	f822                	c.sdsp	x8,48(x2)
    40000e18:	0080                	c.addi4spn	x8,x2,64
    40000e1a:	87aa                	c.mv	x15,x10
    40000e1c:	fcf42623          	sw	x15,-52(x8)
    40000e20:	fcc42783          	lw	x15,-52(x8)
    40000e24:	45a1                	c.li	x11,8
    40000e26:	853e                	c.mv	x10,x15
    40000e28:	d59ff0ef          	jal	x1,40000b80 <round_up>
    40000e2c:	87aa                	c.mv	x15,x10
    40000e2e:	2781                	c.addiw	x15,0
    40000e30:	27a1                	c.addiw	x15,8
    40000e32:	fef42223          	sw	x15,-28(x8)
    40000e36:	400027b7          	lui	x15,0x40002
    40000e3a:	3f87b783          	ld	x15,1016(x15) # 400023f8 <heap_start>
    40000e3e:	fef43423          	sd	x15,-24(x8)
    40000e42:	a84d                	c.j	40000ef4 <mem_alloc+0xe2>
    40000e44:	fe843503          	ld	x10,-24(x8)
    40000e48:	ddfff0ef          	jal	x1,40000c26 <get_blocksize>
    40000e4c:	87aa                	c.mv	x15,x10
    40000e4e:	fef42023          	sw	x15,-32(x8)
    40000e52:	fe843503          	ld	x10,-24(x8)
    40000e56:	dfdff0ef          	jal	x1,40000c52 <get_allocated>
    40000e5a:	87aa                	c.mv	x15,x10
    40000e5c:	fcf42e23          	sw	x15,-36(x8)
    40000e60:	fe042703          	lw	x14,-32(x8)
    40000e64:	fe442783          	lw	x15,-28(x8)
    40000e68:	2701                	c.addiw	x14,0
    40000e6a:	2781                	c.addiw	x15,0
    40000e6c:	06f76e63          	bltu	x14,x15,40000ee8 <mem_alloc+0xd6>
    40000e70:	fdc42783          	lw	x15,-36(x8)
    40000e74:	2781                	c.addiw	x15,0
    40000e76:	ebad                	c.bnez	x15,40000ee8 <mem_alloc+0xd6>
    40000e78:	fe042703          	lw	x14,-32(x8)
    40000e7c:	fcc42783          	lw	x15,-52(x8)
    40000e80:	2701                	c.addiw	x14,0
    40000e82:	2781                	c.addiw	x15,0
    40000e84:	04e7f463          	bgeu	x15,x14,40000ecc <mem_alloc+0xba>
    40000e88:	fe442783          	lw	x15,-28(x8)
    40000e8c:	4605                	c.li	x12,1
    40000e8e:	85be                	c.mv	x11,x15
    40000e90:	fe843503          	ld	x10,-24(x8)
    40000e94:	e5dff0ef          	jal	x1,40000cf0 <set_block>
    40000e98:	fe446783          	lwu	x15,-28(x8)
    40000e9c:	fe843703          	ld	x14,-24(x8)
    40000ea0:	97ba                	c.add	x15,x14
    40000ea2:	fcf43823          	sd	x15,-48(x8)
    40000ea6:	fe042703          	lw	x14,-32(x8)
    40000eaa:	fe442783          	lw	x15,-28(x8)
    40000eae:	40f707bb          	subw	x15,x14,x15
    40000eb2:	2781                	c.addiw	x15,0
    40000eb4:	4601                	c.li	x12,0
    40000eb6:	85be                	c.mv	x11,x15
    40000eb8:	fd043503          	ld	x10,-48(x8)
    40000ebc:	e35ff0ef          	jal	x1,40000cf0 <set_block>
    40000ec0:	fe843503          	ld	x10,-24(x8)
    40000ec4:	d4bff0ef          	jal	x1,40000c0e <get_payload>
    40000ec8:	87aa                	c.mv	x15,x10
    40000eca:	a835                	c.j	40000f06 <mem_alloc+0xf4>
    40000ecc:	fe442783          	lw	x15,-28(x8)
    40000ed0:	4605                	c.li	x12,1
    40000ed2:	85be                	c.mv	x11,x15
    40000ed4:	fe843503          	ld	x10,-24(x8)
    40000ed8:	e19ff0ef          	jal	x1,40000cf0 <set_block>
    40000edc:	fe843503          	ld	x10,-24(x8)
    40000ee0:	d2fff0ef          	jal	x1,40000c0e <get_payload>
    40000ee4:	87aa                	c.mv	x15,x10
    40000ee6:	a005                	c.j	40000f06 <mem_alloc+0xf4>
    40000ee8:	fe843503          	ld	x10,-24(x8)
    40000eec:	d93ff0ef          	jal	x1,40000c7e <get_nextblock>
    40000ef0:	fea43423          	sd	x10,-24(x8)
    40000ef4:	400027b7          	lui	x15,0x40002
    40000ef8:	4007b783          	ld	x15,1024(x15) # 40002400 <heap_end>
    40000efc:	fe843703          	ld	x14,-24(x8)
    40000f00:	f4f762e3          	bltu	x14,x15,40000e44 <mem_alloc+0x32>
    40000f04:	4781                	c.li	x15,0
    40000f06:	853e                	c.mv	x10,x15
    40000f08:	70e2                	c.ldsp	x1,56(x2)
    40000f0a:	7442                	c.ldsp	x8,48(x2)
    40000f0c:	6121                	c.addi16sp	x2,64
    40000f0e:	8082                	c.jr	x1

0000000040000f10 <mem_free>:
    40000f10:	715d                	c.addi16sp	x2,-80
    40000f12:	e486                	c.sdsp	x1,72(x2)
    40000f14:	e0a2                	c.sdsp	x8,64(x2)
    40000f16:	0880                	c.addi4spn	x8,x2,80
    40000f18:	faa43c23          	sd	x10,-72(x8)
    40000f1c:	fb843783          	ld	x15,-72(x8)
    40000f20:	17f1                	c.addi	x15,-4
    40000f22:	faf43c23          	sd	x15,-72(x8)
    40000f26:	fb843503          	ld	x10,-72(x8)
    40000f2a:	cfdff0ef          	jal	x1,40000c26 <get_blocksize>
    40000f2e:	87aa                	c.mv	x15,x10
    40000f30:	fef42623          	sw	x15,-20(x8)
    40000f34:	fb843503          	ld	x10,-72(x8)
    40000f38:	d47ff0ef          	jal	x1,40000c7e <get_nextblock>
    40000f3c:	fea43023          	sd	x10,-32(x8)
    40000f40:	fb843503          	ld	x10,-72(x8)
    40000f44:	d71ff0ef          	jal	x1,40000cb4 <get_prveblock>
    40000f48:	fca43c23          	sd	x10,-40(x8)
    40000f4c:	fe043503          	ld	x10,-32(x8)
    40000f50:	d03ff0ef          	jal	x1,40000c52 <get_allocated>
    40000f54:	87aa                	c.mv	x15,x10
    40000f56:	fcf42a23          	sw	x15,-44(x8)
    40000f5a:	fd843503          	ld	x10,-40(x8)
    40000f5e:	cf5ff0ef          	jal	x1,40000c52 <get_allocated>
    40000f62:	87aa                	c.mv	x15,x10
    40000f64:	fcf42823          	sw	x15,-48(x8)
    40000f68:	fe043503          	ld	x10,-32(x8)
    40000f6c:	cbbff0ef          	jal	x1,40000c26 <get_blocksize>
    40000f70:	87aa                	c.mv	x15,x10
    40000f72:	fcf42623          	sw	x15,-52(x8)
    40000f76:	fd843503          	ld	x10,-40(x8)
    40000f7a:	cadff0ef          	jal	x1,40000c26 <get_blocksize>
    40000f7e:	87aa                	c.mv	x15,x10
    40000f80:	fcf42423          	sw	x15,-56(x8)
    40000f84:	fd442783          	lw	x15,-44(x8)
    40000f88:	0007871b          	addiw	x14,x15,0
    40000f8c:	4785                	c.li	x15,1
    40000f8e:	02f71063          	bne	x14,x15,40000fae <mem_free+0x9e>
    40000f92:	fd042783          	lw	x15,-48(x8)
    40000f96:	0007871b          	addiw	x14,x15,0
    40000f9a:	4785                	c.li	x15,1
    40000f9c:	00f71963          	bne	x14,x15,40000fae <mem_free+0x9e>
    40000fa0:	4601                	c.li	x12,0
    40000fa2:	4581                	c.li	x11,0
    40000fa4:	fb843503          	ld	x10,-72(x8)
    40000fa8:	d49ff0ef          	jal	x1,40000cf0 <set_block>
    40000fac:	a049                	c.j	4000102e <mem_free+0x11e>
    40000fae:	fd442783          	lw	x15,-44(x8)
    40000fb2:	2781                	c.addiw	x15,0
    40000fb4:	e78d                	c.bnez	x15,40000fde <mem_free+0xce>
    40000fb6:	fd042783          	lw	x15,-48(x8)
    40000fba:	0007871b          	addiw	x14,x15,0
    40000fbe:	4785                	c.li	x15,1
    40000fc0:	00f71f63          	bne	x14,x15,40000fde <mem_free+0xce>
    40000fc4:	fcc42703          	lw	x14,-52(x8)
    40000fc8:	fec42783          	lw	x15,-20(x8)
    40000fcc:	9fb9                	c.addw	x15,x14
    40000fce:	2781                	c.addiw	x15,0
    40000fd0:	4601                	c.li	x12,0
    40000fd2:	85be                	c.mv	x11,x15
    40000fd4:	fb843503          	ld	x10,-72(x8)
    40000fd8:	d19ff0ef          	jal	x1,40000cf0 <set_block>
    40000fdc:	a889                	c.j	4000102e <mem_free+0x11e>
    40000fde:	fd442783          	lw	x15,-44(x8)
    40000fe2:	0007871b          	addiw	x14,x15,0
    40000fe6:	4785                	c.li	x15,1
    40000fe8:	02f71363          	bne	x14,x15,4000100e <mem_free+0xfe>
    40000fec:	fd042783          	lw	x15,-48(x8)
    40000ff0:	2781                	c.addiw	x15,0
    40000ff2:	ef91                	c.bnez	x15,4000100e <mem_free+0xfe>
    40000ff4:	fc842703          	lw	x14,-56(x8)
    40000ff8:	fec42783          	lw	x15,-20(x8)
    40000ffc:	9fb9                	c.addw	x15,x14
    40000ffe:	2781                	c.addiw	x15,0
    40001000:	4601                	c.li	x12,0
    40001002:	85be                	c.mv	x11,x15
    40001004:	fd843503          	ld	x10,-40(x8)
    40001008:	ce9ff0ef          	jal	x1,40000cf0 <set_block>
    4000100c:	a00d                	c.j	4000102e <mem_free+0x11e>
    4000100e:	fc842703          	lw	x14,-56(x8)
    40001012:	fec42783          	lw	x15,-20(x8)
    40001016:	9fb9                	c.addw	x15,x14
    40001018:	2781                	c.addiw	x15,0
    4000101a:	fcc42703          	lw	x14,-52(x8)
    4000101e:	9fb9                	c.addw	x15,x14
    40001020:	2781                	c.addiw	x15,0
    40001022:	4601                	c.li	x12,0
    40001024:	85be                	c.mv	x11,x15
    40001026:	fd843503          	ld	x10,-40(x8)
    4000102a:	cc7ff0ef          	jal	x1,40000cf0 <set_block>
    4000102e:	0001                	c.addi	x0,0
    40001030:	853e                	c.mv	x10,x15
    40001032:	60a6                	c.ldsp	x1,72(x2)
    40001034:	6406                	c.ldsp	x8,64(x2)
    40001036:	6161                	c.addi16sp	x2,80
    40001038:	8082                	c.jr	x1

000000004000103a <heap_init>:
    4000103a:	1141                	c.addi	x2,-16
    4000103c:	e406                	c.sdsp	x1,8(x2)
    4000103e:	e022                	c.sdsp	x8,0(x2)
    40001040:	0800                	c.addi4spn	x8,x2,16
    40001042:	400017b7          	lui	x15,0x40001
    40001046:	7177b783          	ld	x15,1815(x15) # 40001717 <bss_end>
    4000104a:	0007871b          	addiw	x14,x15,0
    4000104e:	008007b7          	lui	x15,0x800
    40001052:	9fb9                	c.addw	x15,x14
    40001054:	2781                	c.addiw	x15,0
    40001056:	4591                	c.li	x11,4
    40001058:	853e                	c.mv	x10,x15
    4000105a:	b27ff0ef          	jal	x1,40000b80 <round_up>
    4000105e:	87aa                	c.mv	x15,x10
    40001060:	2781                	c.addiw	x15,0
    40001062:	02079713          	slli	x14,x15,0x20
    40001066:	9301                	c.srli	x14,0x20
    40001068:	400027b7          	lui	x15,0x40002
    4000106c:	3ee7bc23          	sd	x14,1016(x15) # 400023f8 <heap_start>
    40001070:	400017b7          	lui	x15,0x40001
    40001074:	71b7b783          	ld	x15,1819(x15) # 4000171b <memory_end>
    40001078:	0007871b          	addiw	x14,x15,0
    4000107c:	400027b7          	lui	x15,0x40002
    40001080:	3f87b783          	ld	x15,1016(x15) # 400023f8 <heap_start>
    40001084:	2781                	c.addiw	x15,0
    40001086:	40f707bb          	subw	x15,x14,x15
    4000108a:	2781                	c.addiw	x15,0
    4000108c:	37dd                	c.addiw	x15,-9
    4000108e:	2781                	c.addiw	x15,0
    40001090:	45a1                	c.li	x11,8
    40001092:	853e                	c.mv	x10,x15
    40001094:	b2fff0ef          	jal	x1,40000bc2 <round_down>
    40001098:	87aa                	c.mv	x15,x10
    4000109a:	2781                	c.addiw	x15,0
    4000109c:	02079713          	slli	x14,x15,0x20
    400010a0:	9301                	c.srli	x14,0x20
    400010a2:	400027b7          	lui	x15,0x40002
    400010a6:	3f87b783          	ld	x15,1016(x15) # 400023f8 <heap_start>
    400010aa:	97ba                	c.add	x15,x14
    400010ac:	00878713          	addi	x14,x15,8
    400010b0:	400027b7          	lui	x15,0x40002
    400010b4:	40e7b023          	sd	x14,1024(x15) # 40002400 <heap_end>
    400010b8:	400027b7          	lui	x15,0x40002
    400010bc:	3f87b783          	ld	x15,1016(x15) # 400023f8 <heap_start>
    400010c0:	00478713          	addi	x14,x15,4
    400010c4:	400027b7          	lui	x15,0x40002
    400010c8:	3ee7bc23          	sd	x14,1016(x15) # 400023f8 <heap_start>
    400010cc:	400027b7          	lui	x15,0x40002
    400010d0:	4007b783          	ld	x15,1024(x15) # 40002400 <heap_end>
    400010d4:	ffc78713          	addi	x14,x15,-4
    400010d8:	400027b7          	lui	x15,0x40002
    400010dc:	40e7b023          	sd	x14,1024(x15) # 40002400 <heap_end>
    400010e0:	400027b7          	lui	x15,0x40002
    400010e4:	3f87b783          	ld	x15,1016(x15) # 400023f8 <heap_start>
    400010e8:	17f1                	c.addi	x15,-4
    400010ea:	0007a023          	sw	x0,0(x15)
    400010ee:	400027b7          	lui	x15,0x40002
    400010f2:	3f87b783          	ld	x15,1016(x15) # 400023f8 <heap_start>
    400010f6:	17f1                	c.addi	x15,-4
    400010f8:	4394                	c.lw	x13,0(x15)
    400010fa:	400027b7          	lui	x15,0x40002
    400010fe:	3f87b783          	ld	x15,1016(x15) # 400023f8 <heap_start>
    40001102:	17f1                	c.addi	x15,-4
    40001104:	873e                	c.mv	x14,x15
    40001106:	87b6                	c.mv	x15,x13
    40001108:	0017e793          	ori	x15,x15,1
    4000110c:	2781                	c.addiw	x15,0
    4000110e:	c31c                	c.sw	x15,0(x14)
    40001110:	400027b7          	lui	x15,0x40002
    40001114:	4007b783          	ld	x15,1024(x15) # 40002400 <heap_end>
    40001118:	0791                	c.addi	x15,4
    4000111a:	0007a023          	sw	x0,0(x15)
    4000111e:	400027b7          	lui	x15,0x40002
    40001122:	4007b783          	ld	x15,1024(x15) # 40002400 <heap_end>
    40001126:	0791                	c.addi	x15,4
    40001128:	4394                	c.lw	x13,0(x15)
    4000112a:	400027b7          	lui	x15,0x40002
    4000112e:	4007b783          	ld	x15,1024(x15) # 40002400 <heap_end>
    40001132:	0791                	c.addi	x15,4
    40001134:	873e                	c.mv	x14,x15
    40001136:	87b6                	c.mv	x15,x13
    40001138:	0017e793          	ori	x15,x15,1
    4000113c:	2781                	c.addiw	x15,0
    4000113e:	c31c                	c.sw	x15,0(x14)
    40001140:	400027b7          	lui	x15,0x40002
    40001144:	3f87b683          	ld	x13,1016(x15) # 400023f8 <heap_start>
    40001148:	400027b7          	lui	x15,0x40002
    4000114c:	4007b783          	ld	x15,1024(x15) # 40002400 <heap_end>
    40001150:	0007871b          	addiw	x14,x15,0
    40001154:	400027b7          	lui	x15,0x40002
    40001158:	3f87b783          	ld	x15,1016(x15) # 400023f8 <heap_start>
    4000115c:	2781                	c.addiw	x15,0
    4000115e:	40f707bb          	subw	x15,x14,x15
    40001162:	2781                	c.addiw	x15,0
    40001164:	4601                	c.li	x12,0
    40001166:	85be                	c.mv	x11,x15
    40001168:	8536                	c.mv	x10,x13
    4000116a:	b87ff0ef          	jal	x1,40000cf0 <set_block>
    4000116e:	0001                	c.addi	x0,0
    40001170:	853e                	c.mv	x10,x15
    40001172:	60a2                	c.ldsp	x1,8(x2)
    40001174:	6402                	c.ldsp	x8,0(x2)
    40001176:	0141                	c.addi	x2,16
    40001178:	8082                	c.jr	x1

000000004000117a <block_printf>:
    4000117a:	7179                	c.addi16sp	x2,-48
    4000117c:	f406                	c.sdsp	x1,40(x2)
    4000117e:	f022                	c.sdsp	x8,32(x2)
    40001180:	1800                	c.addi4spn	x8,x2,48
    40001182:	4785                	c.li	x15,1
    40001184:	fef42623          	sw	x15,-20(x8)
    40001188:	400027b7          	lui	x15,0x40002
    4000118c:	3f87b783          	ld	x15,1016(x15) # 400023f8 <heap_start>
    40001190:	fef43023          	sd	x15,-32(x8)
    40001194:	400027b7          	lui	x15,0x40002
    40001198:	3f87b783          	ld	x15,1016(x15) # 400023f8 <heap_start>
    4000119c:	fcf42e23          	sw	x15,-36(x8)
    400011a0:	a0d9                	c.j	40001266 <block_printf+0xec>
    400011a2:	fe043503          	ld	x10,-32(x8)
    400011a6:	a81ff0ef          	jal	x1,40000c26 <get_blocksize>
    400011aa:	87aa                	c.mv	x15,x10
    400011ac:	2781                	c.addiw	x15,0
    400011ae:	fdc42703          	lw	x14,-36(x8)
    400011b2:	9fb9                	c.addw	x15,x14
    400011b4:	fcf42e23          	sw	x15,-36(x8)
    400011b8:	fe043583          	ld	x11,-32(x8)
    400011bc:	400017b7          	lui	x15,0x40001
    400011c0:	7b878513          	addi	x10,x15,1976 # 400017b8 <memory_end+0x9d>
    400011c4:	901ff0ef          	jal	x1,40000ac4 <printf>
    400011c8:	fe043503          	ld	x10,-32(x8)
    400011cc:	a87ff0ef          	jal	x1,40000c52 <get_allocated>
    400011d0:	87aa                	c.mv	x15,x10
    400011d2:	2781                	c.addiw	x15,0
    400011d4:	fcf42c23          	sw	x15,-40(x8)
    400011d8:	fd842783          	lw	x15,-40(x8)
    400011dc:	2781                	c.addiw	x15,0
    400011de:	eb81                	c.bnez	x15,400011ee <block_printf+0x74>
    400011e0:	400017b7          	lui	x15,0x40001
    400011e4:	7c878513          	addi	x10,x15,1992 # 400017c8 <memory_end+0xad>
    400011e8:	8ddff0ef          	jal	x1,40000ac4 <printf>
    400011ec:	a039                	c.j	400011fa <block_printf+0x80>
    400011ee:	400017b7          	lui	x15,0x40001
    400011f2:	7d078513          	addi	x10,x15,2000 # 400017d0 <memory_end+0xb5>
    400011f6:	8cfff0ef          	jal	x1,40000ac4 <printf>
    400011fa:	fe043503          	ld	x10,-32(x8)
    400011fe:	a29ff0ef          	jal	x1,40000c26 <get_blocksize>
    40001202:	87aa                	c.mv	x15,x10
    40001204:	2781                	c.addiw	x15,0
    40001206:	02079713          	slli	x14,x15,0x20
    4000120a:	9301                	c.srli	x14,0x20
    4000120c:	fe043783          	ld	x15,-32(x8)
    40001210:	97ba                	c.add	x15,x14
    40001212:	85be                	c.mv	x11,x15
    40001214:	400017b7          	lui	x15,0x40001
    40001218:	7d878513          	addi	x10,x15,2008 # 400017d8 <memory_end+0xbd>
    4000121c:	901ff0ef          	jal	x1,40000b1c <debug>
    40001220:	fe043503          	ld	x10,-32(x8)
    40001224:	a5bff0ef          	jal	x1,40000c7e <get_nextblock>
    40001228:	fea43023          	sd	x10,-32(x8)
    4000122c:	fd842703          	lw	x14,-40(x8)
    40001230:	fec42783          	lw	x15,-20(x8)
    40001234:	2701                	c.addiw	x14,0
    40001236:	2781                	c.addiw	x15,0
    40001238:	00f71663          	bne	x14,x15,40001244 <block_printf+0xca>
    4000123c:	fd842783          	lw	x15,-40(x8)
    40001240:	2781                	c.addiw	x15,0
    40001242:	c799                	c.beqz	x15,40001250 <block_printf+0xd6>
    40001244:	fdc46783          	lwu	x15,-36(x8)
    40001248:	fe043703          	ld	x14,-32(x8)
    4000124c:	00f70963          	beq	x14,x15,4000125e <block_printf+0xe4>
    40001250:	400017b7          	lui	x15,0x40001
    40001254:	7e078513          	addi	x10,x15,2016 # 400017e0 <memory_end+0xc5>
    40001258:	8c5ff0ef          	jal	x1,40000b1c <debug>
    4000125c:	a001                	c.j	4000125c <block_printf+0xe2>
    4000125e:	fd842783          	lw	x15,-40(x8)
    40001262:	fef42623          	sw	x15,-20(x8)
    40001266:	400027b7          	lui	x15,0x40002
    4000126a:	4007b783          	ld	x15,1024(x15) # 40002400 <heap_end>
    4000126e:	fe043703          	ld	x14,-32(x8)
    40001272:	f2f768e3          	bltu	x14,x15,400011a2 <block_printf+0x28>
    40001276:	0001                	c.addi	x0,0
    40001278:	0001                	c.addi	x0,0
    4000127a:	70a2                	c.ldsp	x1,40(x2)
    4000127c:	7402                	c.ldsp	x8,32(x2)
    4000127e:	6145                	c.addi16sp	x2,48
    40001280:	8082                	c.jr	x1
	...

0000000040001290 <switch_to>:
    40001290:	340f9ff3          	csrrw	x31,mscratch,x31
    40001294:	001fb023          	sd	x1,0(x31)
    40001298:	002fb423          	sd	x2,8(x31)
    4000129c:	003fb823          	sd	x3,16(x31)
    400012a0:	004fbc23          	sd	x4,24(x31)
    400012a4:	025fb023          	sd	x5,32(x31)
    400012a8:	026fb423          	sd	x6,40(x31)
    400012ac:	027fb823          	sd	x7,48(x31)
    400012b0:	028fbc23          	sd	x8,56(x31)
    400012b4:	049fb023          	sd	x9,64(x31)
    400012b8:	04afb423          	sd	x10,72(x31)
    400012bc:	04bfb823          	sd	x11,80(x31)
    400012c0:	04cfbc23          	sd	x12,88(x31)
    400012c4:	06dfb023          	sd	x13,96(x31)
    400012c8:	06efb423          	sd	x14,104(x31)
    400012cc:	06ffb823          	sd	x15,112(x31)
    400012d0:	070fbc23          	sd	x16,120(x31)
    400012d4:	091fb023          	sd	x17,128(x31)
    400012d8:	092fb423          	sd	x18,136(x31)
    400012dc:	093fb823          	sd	x19,144(x31)
    400012e0:	094fbc23          	sd	x20,152(x31)
    400012e4:	0b5fb023          	sd	x21,160(x31)
    400012e8:	0b6fb423          	sd	x22,168(x31)
    400012ec:	0b7fb823          	sd	x23,176(x31)
    400012f0:	0b8fbc23          	sd	x24,184(x31)
    400012f4:	0d9fb023          	sd	x25,192(x31)
    400012f8:	0dafb423          	sd	x26,200(x31)
    400012fc:	0dbfb823          	sd	x27,208(x31)
    40001300:	0dcfbc23          	sd	x28,216(x31)
    40001304:	0fdfb023          	sd	x29,224(x31)
    40001308:	0fefb423          	sd	x30,232(x31)
    4000130c:	0fffb823          	sd	x31,240(x31)
    40001310:	34002f73          	csrrs	x30,mscratch,x0
    40001314:	0fefb823          	sd	x30,240(x31)
    40001318:	34051073          	csrrw	x0,mscratch,x10
    4000131c:	00053083          	ld	x1,0(x10) # 2500000 <_start-0x3db00000>
    40001320:	00853103          	ld	x2,8(x10)
    40001324:	01053183          	ld	x3,16(x10)
    40001328:	01853203          	ld	x4,24(x10)
    4000132c:	02053283          	ld	x5,32(x10)
    40001330:	02853303          	ld	x6,40(x10)
    40001334:	03053383          	ld	x7,48(x10)
    40001338:	7d00                	c.ld	x8,56(x10)
    4000133a:	6124                	c.ld	x9,64(x10)
    4000133c:	6528                	c.ld	x10,72(x10)
    4000133e:	692c                	c.ld	x11,80(x10)
    40001340:	6d30                	c.ld	x12,88(x10)
    40001342:	7134                	c.ld	x13,96(x10)
    40001344:	7538                	c.ld	x14,104(x10)
    40001346:	793c                	c.ld	x15,112(x10)
    40001348:	07853803          	ld	x16,120(x10)
    4000134c:	08053883          	ld	x17,128(x10)
    40001350:	08853903          	ld	x18,136(x10)
    40001354:	09053983          	ld	x19,144(x10)
    40001358:	09853a03          	ld	x20,152(x10)
    4000135c:	0a053a83          	ld	x21,160(x10)
    40001360:	0a853b03          	ld	x22,168(x10)
    40001364:	0b053b83          	ld	x23,176(x10)
    40001368:	0b853c03          	ld	x24,184(x10)
    4000136c:	0c053c83          	ld	x25,192(x10)
    40001370:	0c853d03          	ld	x26,200(x10)
    40001374:	0d053d83          	ld	x27,208(x10)
    40001378:	0d853e03          	ld	x28,216(x10)
    4000137c:	0e053e83          	ld	x29,224(x10)
    40001380:	0e853f03          	ld	x30,232(x10)
    40001384:	0f053f83          	ld	x31,240(x10)
    40001388:	8082                	c.jr	x1
	...

0000000040001392 <init_so_thread>:
    40001392:	1101                	c.addi	x2,-32
    40001394:	ec22                	c.sdsp	x8,24(x2)
    40001396:	1000                	c.addi4spn	x8,x2,32
    40001398:	400027b7          	lui	x15,0x40002
    4000139c:	40878793          	addi	x15,x15,1032 # 40002408 <os_thread>
    400013a0:	fef43423          	sd	x15,-24(x8)
    400013a4:	fe843783          	ld	x15,-24(x8)
    400013a8:	34079073          	csrrw	x0,mscratch,x15
    400013ac:	0001                	c.addi	x0,0
    400013ae:	6462                	c.ldsp	x8,24(x2)
    400013b0:	6105                	c.addi16sp	x2,32
    400013b2:	8082                	c.jr	x1

00000000400013b4 <init_thread>:
    400013b4:	7179                	c.addi16sp	x2,-48
    400013b6:	f406                	c.sdsp	x1,40(x2)
    400013b8:	f022                	c.sdsp	x8,32(x2)
    400013ba:	1800                	c.addi4spn	x8,x2,48
    400013bc:	fca43c23          	sd	x10,-40(x8)
    400013c0:	008007b7          	lui	x15,0x800
    400013c4:	0f878513          	addi	x10,x15,248 # 8000f8 <_start-0x3f7fff08>
    400013c8:	a4bff0ef          	jal	x1,40000e12 <mem_alloc>
    400013cc:	fea43423          	sd	x10,-24(x8)
    400013d0:	fe843703          	ld	x14,-24(x8)
    400013d4:	008007b7          	lui	x15,0x800
    400013d8:	0f878793          	addi	x15,x15,248 # 8000f8 <_start-0x3f7fff08>
    400013dc:	97ba                	c.add	x15,x14
    400013de:	873e                	c.mv	x14,x15
    400013e0:	fe843783          	ld	x15,-24(x8)
    400013e4:	e798                	c.sd	x14,8(x15)
    400013e6:	fd843703          	ld	x14,-40(x8)
    400013ea:	fe843783          	ld	x15,-24(x8)
    400013ee:	e398                	c.sd	x14,0(x15)
    400013f0:	0001                	c.addi	x0,0
    400013f2:	853e                	c.mv	x10,x15
    400013f4:	70a2                	c.ldsp	x1,40(x2)
    400013f6:	7402                	c.ldsp	x8,32(x2)
    400013f8:	6145                	c.addi16sp	x2,48
    400013fa:	8082                	c.jr	x1

00000000400013fc <schedule>:
    400013fc:	1101                	c.addi	x2,-32
    400013fe:	ec06                	c.sdsp	x1,24(x2)
    40001400:	e822                	c.sdsp	x8,16(x2)
    40001402:	1000                	c.addi4spn	x8,x2,32
    40001404:	fea43423          	sd	x10,-24(x8)
    40001408:	fe843783          	ld	x15,-24(x8)
    4000140c:	853e                	c.mv	x10,x15
    4000140e:	e83ff0ef          	jal	x1,40001290 <switch_to>
    40001412:	0001                	c.addi	x0,0
    40001414:	60e2                	c.ldsp	x1,24(x2)
    40001416:	6442                	c.ldsp	x8,16(x2)
    40001418:	6105                	c.addi16sp	x2,32
    4000141a:	8082                	c.jr	x1
    4000141c:	0000                	c.unimp
	...

0000000040001420 <trap_vector>:
    40001420:	340f9ff3          	csrrw	x31,mscratch,x31
    40001424:	001fb023          	sd	x1,0(x31)
    40001428:	002fb423          	sd	x2,8(x31)
    4000142c:	003fb823          	sd	x3,16(x31)
    40001430:	004fbc23          	sd	x4,24(x31)
    40001434:	025fb023          	sd	x5,32(x31)
    40001438:	026fb423          	sd	x6,40(x31)
    4000143c:	027fb823          	sd	x7,48(x31)
    40001440:	028fbc23          	sd	x8,56(x31)
    40001444:	049fb023          	sd	x9,64(x31)
    40001448:	04afb423          	sd	x10,72(x31)
    4000144c:	04bfb823          	sd	x11,80(x31)
    40001450:	04cfbc23          	sd	x12,88(x31)
    40001454:	06dfb023          	sd	x13,96(x31)
    40001458:	06efb423          	sd	x14,104(x31)
    4000145c:	06ffb823          	sd	x15,112(x31)
    40001460:	070fbc23          	sd	x16,120(x31)
    40001464:	091fb023          	sd	x17,128(x31)
    40001468:	092fb423          	sd	x18,136(x31)
    4000146c:	093fb823          	sd	x19,144(x31)
    40001470:	094fbc23          	sd	x20,152(x31)
    40001474:	0b5fb023          	sd	x21,160(x31)
    40001478:	0b6fb423          	sd	x22,168(x31)
    4000147c:	0b7fb823          	sd	x23,176(x31)
    40001480:	0b8fbc23          	sd	x24,184(x31)
    40001484:	0d9fb023          	sd	x25,192(x31)
    40001488:	0dafb423          	sd	x26,200(x31)
    4000148c:	0dbfb823          	sd	x27,208(x31)
    40001490:	0dcfbc23          	sd	x28,216(x31)
    40001494:	0fdfb023          	sd	x29,224(x31)
    40001498:	0fefb423          	sd	x30,232(x31)
    4000149c:	0fffb823          	sd	x31,240(x31)
    400014a0:	34002f73          	csrrs	x30,mscratch,x0
    400014a4:	0fefb823          	sd	x30,240(x31)
    400014a8:	340f9073          	csrrw	x0,mscratch,x31
    400014ac:	34102573          	csrrs	x10,mepc,x0
    400014b0:	342025f3          	csrrs	x11,mcause,x0
    400014b4:	15c000ef          	jal	x1,40001610 <trap_handler>
    400014b8:	34151073          	csrrw	x0,mepc,x10
    400014bc:	34002ff3          	csrrs	x31,mscratch,x0
    400014c0:	000fb083          	ld	x1,0(x31)
    400014c4:	008fb103          	ld	x2,8(x31)
    400014c8:	010fb183          	ld	x3,16(x31)
    400014cc:	018fb203          	ld	x4,24(x31)
    400014d0:	020fb283          	ld	x5,32(x31)
    400014d4:	028fb303          	ld	x6,40(x31)
    400014d8:	030fb383          	ld	x7,48(x31)
    400014dc:	038fb403          	ld	x8,56(x31)
    400014e0:	040fb483          	ld	x9,64(x31)
    400014e4:	048fb503          	ld	x10,72(x31)
    400014e8:	050fb583          	ld	x11,80(x31)
    400014ec:	058fb603          	ld	x12,88(x31)
    400014f0:	060fb683          	ld	x13,96(x31)
    400014f4:	068fb703          	ld	x14,104(x31)
    400014f8:	070fb783          	ld	x15,112(x31)
    400014fc:	078fb803          	ld	x16,120(x31)
    40001500:	080fb883          	ld	x17,128(x31)
    40001504:	088fb903          	ld	x18,136(x31)
    40001508:	090fb983          	ld	x19,144(x31)
    4000150c:	098fba03          	ld	x20,152(x31)
    40001510:	0a0fba83          	ld	x21,160(x31)
    40001514:	0a8fbb03          	ld	x22,168(x31)
    40001518:	0b0fbb83          	ld	x23,176(x31)
    4000151c:	0b8fbc03          	ld	x24,184(x31)
    40001520:	0c0fbc83          	ld	x25,192(x31)
    40001524:	0c8fbd03          	ld	x26,200(x31)
    40001528:	0d0fbd83          	ld	x27,208(x31)
    4000152c:	0d8fbe03          	ld	x28,216(x31)
    40001530:	0e0fbe83          	ld	x29,224(x31)
    40001534:	0e8fbf03          	ld	x30,232(x31)
    40001538:	0f0fbf83          	ld	x31,240(x31)
    4000153c:	30200073          	mret

0000000040001540 <all_interrupt_enable>:
    40001540:	30046073          	csrrsi	x0,mstatus,8
    40001544:	8082                	c.jr	x1
	...

0000000040001550 <counter>:
    40001550:	1101                	c.addi	x2,-32
    40001552:	ec22                	c.sdsp	x8,24(x2)
    40001554:	1000                	c.addi4spn	x8,x2,32
    40001556:	c01027f3          	csrrs	x15,time,x0
    4000155a:	fef43423          	sd	x15,-24(x8)
    4000155e:	fe843783          	ld	x15,-24(x8)
    40001562:	853e                	c.mv	x10,x15
    40001564:	6462                	c.ldsp	x8,24(x2)
    40001566:	6105                	c.addi16sp	x2,32
    40001568:	8082                	c.jr	x1

000000004000156a <clint_soft_irq_start>:
    4000156a:	1141                	c.addi	x2,-16
    4000156c:	e406                	c.sdsp	x1,8(x2)
    4000156e:	e022                	c.sdsp	x8,0(x2)
    40001570:	0800                	c.addi4spn	x8,x2,16
    40001572:	4585                	c.li	x11,1
    40001574:	14000537          	lui	x10,0x14000
    40001578:	c7bfe0ef          	jal	x1,400001f2 <write32>
    4000157c:	0001                	c.addi	x0,0
    4000157e:	60a2                	c.ldsp	x1,8(x2)
    40001580:	6402                	c.ldsp	x8,0(x2)
    40001582:	0141                	c.addi	x2,16
    40001584:	8082                	c.jr	x1

0000000040001586 <clint_set_next_initerr>:
    40001586:	1101                	c.addi	x2,-32
    40001588:	ec06                	c.sdsp	x1,24(x2)
    4000158a:	e822                	c.sdsp	x8,16(x2)
    4000158c:	1000                	c.addi4spn	x8,x2,32
    4000158e:	87aa                	c.mv	x15,x10
    40001590:	fef42623          	sw	x15,-20(x8)
    40001594:	fbdff0ef          	jal	x1,40001550 <counter>
    40001598:	87aa                	c.mv	x15,x10
    4000159a:	0007871b          	addiw	x14,x15,0
    4000159e:	6789                	c.lui	x15,0x2
    400015a0:	7107879b          	addiw	x15,x15,1808
    400015a4:	9fb9                	c.addw	x15,x14
    400015a6:	2781                	c.addiw	x15,0
    400015a8:	85be                	c.mv	x11,x15
    400015aa:	14004537          	lui	x10,0x14004
    400015ae:	c45fe0ef          	jal	x1,400001f2 <write32>
    400015b2:	4581                	c.li	x11,0
    400015b4:	140047b7          	lui	x15,0x14004
    400015b8:	00478513          	addi	x10,x15,4 # 14004004 <_start-0x2bffbffc>
    400015bc:	c37fe0ef          	jal	x1,400001f2 <write32>
    400015c0:	0001                	c.addi	x0,0
    400015c2:	60e2                	c.ldsp	x1,24(x2)
    400015c4:	6442                	c.ldsp	x8,16(x2)
    400015c6:	6105                	c.addi16sp	x2,32
    400015c8:	8082                	c.jr	x1

00000000400015ca <clint_soft_irq_init>:
    400015ca:	1101                	c.addi	x2,-32
    400015cc:	ec22                	c.sdsp	x8,24(x2)
    400015ce:	1000                	c.addi4spn	x8,x2,32
    400015d0:	08800793          	addi	x15,x0,136
    400015d4:	fef43423          	sd	x15,-24(x8)
    400015d8:	fe843783          	ld	x15,-24(x8)
    400015dc:	3047b073          	csrrc	x0,mie,x15
    400015e0:	47a1                	c.li	x15,8
    400015e2:	fef43023          	sd	x15,-32(x8)
    400015e6:	fe043783          	ld	x15,-32(x8)
    400015ea:	3047a073          	csrrs	x0,mie,x15
    400015ee:	0001                	c.addi	x0,0
    400015f0:	6462                	c.ldsp	x8,24(x2)
    400015f2:	6105                	c.addi16sp	x2,32
    400015f4:	8082                	c.jr	x1

00000000400015f6 <trap_init>:
    400015f6:	1141                	c.addi	x2,-16
    400015f8:	e422                	c.sdsp	x8,8(x2)
    400015fa:	0800                	c.addi4spn	x8,x2,16
    400015fc:	400017b7          	lui	x15,0x40001
    40001600:	42078793          	addi	x15,x15,1056 # 40001420 <trap_vector>
    40001604:	30579073          	csrrw	x0,mtvec,x15
    40001608:	0001                	c.addi	x0,0
    4000160a:	6422                	c.ldsp	x8,8(x2)
    4000160c:	0141                	c.addi	x2,16
    4000160e:	8082                	c.jr	x1

0000000040001610 <trap_handler>:
    40001610:	7179                	c.addi16sp	x2,-48
    40001612:	f406                	c.sdsp	x1,40(x2)
    40001614:	f022                	c.sdsp	x8,32(x2)
    40001616:	1800                	c.addi4spn	x8,x2,48
    40001618:	fca43c23          	sd	x10,-40(x8)
    4000161c:	fcb43823          	sd	x11,-48(x8)
    40001620:	4581                	c.li	x11,0
    40001622:	14000537          	lui	x10,0x14000
    40001626:	bcdfe0ef          	jal	x1,400001f2 <write32>
    4000162a:	fd043783          	ld	x15,-48(x8)
    4000162e:	8bbd                	c.andi	x15,15
    40001630:	fef43423          	sd	x15,-24(x8)
    40001634:	fd043783          	ld	x15,-48(x8)
    40001638:	0207df63          	bge	x15,x0,40001676 <trap_handler+0x66>
    4000163c:	fd043583          	ld	x11,-48(x8)
    40001640:	400027b7          	lui	x15,0x40002
    40001644:	80078513          	addi	x10,x15,-2048 # 40001800 <memory_end+0xe5>
    40001648:	cd4ff0ef          	jal	x1,40000b1c <debug>
    4000164c:	f05ff0ef          	jal	x1,40001550 <counter>
    40001650:	87aa                	c.mv	x15,x10
    40001652:	85be                	c.mv	x11,x15
    40001654:	400027b7          	lui	x15,0x40002
    40001658:	81878513          	addi	x10,x15,-2024 # 40001818 <memory_end+0xfd>
    4000165c:	cc0ff0ef          	jal	x1,40000b1c <debug>
    40001660:	000f47b7          	lui	x15,0xf4
    40001664:	24078513          	addi	x10,x15,576 # f4240 <_start-0x3ff0bdc0>
    40001668:	f1fff0ef          	jal	x1,40001586 <clint_set_next_initerr>
    4000166c:	1f400513          	addi	x10,x0,500
    40001670:	c0bfe0ef          	jal	x1,4000027a <delay_ms>
    40001674:	a02d                	c.j	4000169e <trap_handler+0x8e>
    40001676:	edbff0ef          	jal	x1,40001550 <counter>
    4000167a:	87aa                	c.mv	x15,x10
    4000167c:	85be                	c.mv	x11,x15
    4000167e:	400027b7          	lui	x15,0x40002
    40001682:	83878513          	addi	x10,x15,-1992 # 40001838 <memory_end+0x11d>
    40001686:	c96ff0ef          	jal	x1,40000b1c <debug>
    4000168a:	000f47b7          	lui	x15,0xf4
    4000168e:	24078513          	addi	x10,x15,576 # f4240 <_start-0x3ff0bdc0>
    40001692:	ef5ff0ef          	jal	x1,40001586 <clint_set_next_initerr>
    40001696:	1f400513          	addi	x10,x0,500
    4000169a:	be1fe0ef          	jal	x1,4000027a <delay_ms>
    4000169e:	400027b7          	lui	x15,0x40002
    400016a2:	85878513          	addi	x10,x15,-1960 # 40001858 <memory_end+0x13d>
    400016a6:	c76ff0ef          	jal	x1,40000b1c <debug>
    400016aa:	3e800513          	addi	x10,x0,1000
    400016ae:	bcdfe0ef          	jal	x1,4000027a <delay_ms>
    400016b2:	b7f5                	c.j	4000169e <trap_handler+0x8e>
